EXPORTS
	?CancelDataAvailable@RPipe@@QAEHXZ @ 1 NONAME ; int RPipe::CancelDataAvailable(void)
	?CancelSpaceAvailable@RPipe@@QAEHXZ @ 2 NONAME ; int RPipe::CancelSpaceAvailable(void)
	?CancelWait@RPipe@@QAEXXZ @ 3 NONAME ; void RPipe::CancelWait(void)
	?Close@RPipe@@QAEXXZ @ 4 NONAME ; void RPipe::Close(void)
	?Create@RPipe@@SAHHAAV1@0W4TOwnerType@@1@Z @ 5 NONAME ; int RPipe::Create(int, class RPipe &, class RPipe &, enum TOwnerType, enum TOwnerType)
	?Define@RPipe@@SAHABVTDesC16@@H@Z @ 6 NONAME ; int RPipe::Define(class TDesC16 const &, int)
	?Define@RPipe@@SAHABVTDesC16@@HABVTSecurityPolicy@@@Z @ 7 NONAME ; int RPipe::Define(class TDesC16 const &, int, class TSecurityPolicy const &)
	?Destroy@RPipe@@SAHABVTDesC16@@@Z @ 8 NONAME ; int RPipe::Destroy(class TDesC16 const &)
	?Flush@RPipe@@QAEXXZ @ 9 NONAME ; void RPipe::Flush(void)
	?HandleType@RPipe@@QBEHXZ @ 10 NONAME ; int RPipe::HandleType(void) const
	?Init@RPipe@@SAHXZ @ 11 NONAME ; int RPipe::Init(void)
	?MaxSize@RPipe@@QAEHXZ @ 12 NONAME ; int RPipe::MaxSize(void)
	?NotifyDataAvailable@RPipe@@QAEXAAVTRequestStatus@@@Z @ 13 NONAME ; void RPipe::NotifyDataAvailable(class TRequestStatus &)
	?NotifySpaceAvailable@RPipe@@QAEXHAAVTRequestStatus@@@Z @ 14 NONAME ; void RPipe::NotifySpaceAvailable(int, class TRequestStatus &)
	?Open@RPipe@@QAEHABVTDesC16@@W4TMode@1@@Z @ 15 NONAME ; int RPipe::Open(class TDesC16 const &, enum RPipe::TMode)
	?Open@RPipe@@QAEHHW4TOwnerType@@@Z @ 16 NONAME ; int RPipe::Open(int, enum TOwnerType)
	?Open@RPipe@@QAEHVRMessagePtr2@@HW4TOwnerType@@@Z @ 17 NONAME ; int RPipe::Open(class RMessagePtr2, int, enum TOwnerType)
	?Read@RPipe@@QAEHAAVTDes8@@H@Z @ 18 NONAME ; int RPipe::Read(class TDes8 &, int)
	?ReadBlocking@RPipe@@QAEHAAVTDes8@@H@Z @ 19 NONAME ; int RPipe::ReadBlocking(class TDes8 &, int)
	?Size@RPipe@@QAEHXZ @ 20 NONAME ; int RPipe::Size(void)
	?Wait@RPipe@@QAEXABVTDesC16@@AAVTRequestStatus@@@Z @ 21 NONAME ; void RPipe::Wait(class TDesC16 const &, class TRequestStatus &)
	?Write@RPipe@@QAEHABVTDesC8@@H@Z @ 22 NONAME ; int RPipe::Write(class TDesC8 const &, int)
	?WriteBlocking@RPipe@@QAEHABVTDesC8@@H@Z @ 23 NONAME ; int RPipe::WriteBlocking(class TDesC8 const &, int)
	?WaitForReader@RPipe@@QAEXABVTDesC16@@AAVTRequestStatus@@@Z @ 24 NONAME ; void RPipe::WaitForReader(class TDesC16 const &, class TRequestStatus &)
	?WaitForWriter@RPipe@@QAEXABVTDesC16@@AAVTRequestStatus@@@Z @ 25 NONAME ; void RPipe::WaitForWriter(class TDesC16 const &, class TRequestStatus &)

