EXPORTS
	?CreateLogicalDevice@@YAPAVDLogicalDevice@@XZ @ 1 NONAME ; class DLogicalDevice * __cdecl CreateLogicalDevice(void)
	??0DMediaDriver@@QAE@H@Z @ 2 NONAME ; public: __thiscall DMediaDriver::DMediaDriver(int)
	??0DPrimaryMediaBase@@QAE@XZ @ 3 NONAME ; public: __thiscall DPrimaryMediaBase::DPrimaryMediaBase(void)
	??1DMediaDriver@@UAE@XZ @ 4 NONAME ; public: virtual __thiscall DMediaDriver::~DMediaDriver(void)
	?CheckAndAdjustForPartition@TLocDrvRequest@@QAEHXZ @ 5 NONAME ; public: int __thiscall TLocDrvRequest::CheckAndAdjustForPartition(void)
	?Close@DMediaDriver@@UAEXXZ @ 6 NONAME ; public: virtual void __thiscall DMediaDriver::Close(void)
	?Complete@DMediaDriver@@QAEXAAVTLocDrvRequest@@H@Z @ 7 NONAME ; public: void __thiscall DMediaDriver::Complete(class TLocDrvRequest &,int)
	?Connect@DPrimaryMediaBase@@UAEHPAVDLocalDrive@@@Z @ 8 NONAME ; public: virtual int __thiscall DPrimaryMediaBase::Connect(class DLocalDrive *)
	?Create@DPrimaryMediaBase@@UAEHW4TMediaDevice@@HH@Z @ 9 NONAME ; public: virtual int __thiscall DPrimaryMediaBase::Create(enum TMediaDevice,int,int)
	?DeltaCurrentConsumption@DPrimaryMediaBase@@UAEXH@Z @ 10 NONAME ; public: virtual void __thiscall DPrimaryMediaBase::DeltaCurrentConsumption(int)
	?Disconnect@DMediaDriver@@UAEXPAVDLocalDrive@@PAVTThreadMessage@@@Z @ 11 NONAME ; public: virtual void __thiscall DMediaDriver::Disconnect(class DLocalDrive *,class TThreadMessage *)
	?Disconnect@DPrimaryMediaBase@@UAEXPAVDLocalDrive@@@Z @ 12 NONAME ; public: virtual void __thiscall DPrimaryMediaBase::Disconnect(class DLocalDrive *)
	?DoEndInCritical@DPrimaryMediaBase@@UAEXXZ @ 13 NONAME ; public: virtual void __thiscall DPrimaryMediaBase::DoEndInCritical(void)
	?DoInCritical@DPrimaryMediaBase@@UAEHXZ @ 14 NONAME ; public: virtual int __thiscall DPrimaryMediaBase::DoInCritical(void)
	?EndInCritical@DMediaDriver@@QAEXXZ @ 15 NONAME ; public: void __thiscall DMediaDriver::EndInCritical(void)
	?ForceMediaChange@DPrimaryMediaBase@@UAEHH@Z @ 16 NONAME ; public: virtual int __thiscall DPrimaryMediaBase::ForceMediaChange(int)
	?InCritical@DMediaDriver@@QAEHXZ @ 17 NONAME ; public: int __thiscall DMediaDriver::InCritical(void)
	?InitiatePowerUp@DPrimaryMediaBase@@UAEHXZ @ 18 NONAME ; public: virtual int __thiscall DPrimaryMediaBase::InitiatePowerUp(void)
	?NotifyEmergencyPowerDown@DPrimaryMediaBase@@QAEXXZ @ 19 NONAME ; public: void __thiscall DPrimaryMediaBase::NotifyEmergencyPowerDown(void)
	?NotifyMediaChange@DPrimaryMediaBase@@QAEXXZ @ 20 NONAME ; public: void __thiscall DPrimaryMediaBase::NotifyMediaChange(void)
	?NotifyMediaPresent@DPrimaryMediaBase@@QAEXXZ @ 21 NONAME ; public: void __thiscall DPrimaryMediaBase::NotifyMediaPresent(void)
	?NotifyPowerDown@DPrimaryMediaBase@@QAEXXZ @ 22 NONAME ; public: void __thiscall DPrimaryMediaBase::NotifyPowerDown(void)
	?NotifyPsuFault@DPrimaryMediaBase@@QAEXH@Z @ 23 NONAME ; public: void __thiscall DPrimaryMediaBase::NotifyPsuFault(int)
	?OpenMediaDriverComplete@DMediaDriver@@QAEXH@Z @ 24 NONAME ; public: void __thiscall DMediaDriver::OpenMediaDriverComplete(int)
	?PartitionInfoComplete@DMediaDriver@@QAEXH@Z @ 25 NONAME ; public: void __thiscall DMediaDriver::PartitionInfoComplete(int)
	?PowerUpComplete@DPrimaryMediaBase@@QAEXH@Z @ 26 NONAME ; public: void __thiscall DPrimaryMediaBase::PowerUpComplete(int)
	?QuickCheckStatus@DPrimaryMediaBase@@UAEHXZ @ 27 NONAME ; public: virtual int __thiscall DPrimaryMediaBase::QuickCheckStatus(void)
	?ReadRemote@TLocDrvRequest@@QAEHPAVTDes8@@H@Z @ 28 NONAME ; public: int __thiscall TLocDrvRequest::ReadRemote(class TDes8 *,int)
	?RegisterMediaDevice@LocDrv@@SAHW4TMediaDevice@@HPBHPAVDPrimaryMediaBase@@HABVTDesC8@@@Z @ 29 NONAME ; public: static int __cdecl LocDrv::RegisterMediaDevice(enum TMediaDevice,int,int const *,class DPrimaryMediaBase *,int,class TDesC8 const &)
	?Request@DPrimaryMediaBase@@UAEHAAVTLocDrvRequest@@@Z @ 30 NONAME ; public: virtual int __thiscall DPrimaryMediaBase::Request(class TLocDrvRequest &)
	?SetCurrentConsumption@DMediaDriver@@QAEXH@Z @ 31 NONAME ; public: void __thiscall DMediaDriver::SetCurrentConsumption(int)
	?SetTotalSizeInBytes@DMediaDriver@@QAEX_JPAVTLocDrv@@@Z @ 32 NONAME ; public: void __thiscall DMediaDriver::SetTotalSizeInBytes(__int64,class TLocDrv *)
	?TotalSizeInBytes@DMediaDriver@@QAE_JXZ @ 33 NONAME ; public: __int64 __thiscall DMediaDriver::TotalSizeInBytes(void)
	?WriteRemote@TLocDrvRequest@@QAEHPBVTDesC8@@H@Z @ 34 NONAME ; public: int __thiscall TLocDrvRequest::WriteRemote(class TDesC8 const *,int)
	?Create@DMedia@@UAEHW4TMediaDevice@@HH@Z @ 35 NONAME ; public: virtual int __thiscall DMedia::Create(enum TMediaDevice,int,int)
	?HandleMsg@DPrimaryMediaBase@@UAEXAAVTLocDrvRequest@@@Z @ 36 NONAME ; public: virtual void __thiscall DPrimaryMediaBase::HandleMsg(class TLocDrvRequest &)
	?RunDeferred@DPrimaryMediaBase@@QAEXXZ @ 37 NONAME ; public: void __thiscall DPrimaryMediaBase::RunDeferred(void)
	?DoRequest@DPrimaryMediaBase@@UAEHAAVTLocDrvRequest@@@Z @ 38 NONAME ; public: virtual int __thiscall DPrimaryMediaBase::DoRequest(class TLocDrvRequest &)
	?DefaultDriveCaps@DPrimaryMediaBase@@UAEXAAVTLocalDriveCapsV2@@@Z @ 39 NONAME ; public: virtual void __thiscall DPrimaryMediaBase::DefaultDriveCaps(class TLocalDriveCapsV2 &)
	?RegisterPasswordStore@LocDrv@@SAHPAVTPasswordStore@@@Z @ 40 NONAME ; public: static int __cdecl LocDrv::RegisterPasswordStore(class TPasswordStore *)
	?IsRemovableDevice@DPrimaryMediaBase@@UAEHAAH@Z @ 41 NONAME ; public: virtual int __thiscall DPrimaryMediaBase::IsRemovableDevice(int &)
	?PasswordStore@LocDrv@@SAPAVTPasswordStore@@XZ @ 42 NONAME ; public: static class TPasswordStore * __cdecl LocDrv::PasswordStore(void)
	?ReadRemoteRaw@TLocDrvRequest@@QAEHPAXH@Z @ 43 NONAME ; public: int __thiscall TLocDrvRequest::ReadRemoteRaw(void *,int)
	?WriteRemoteRaw@TLocDrvRequest@@QAEHPBXH@Z @ 44 NONAME ; public: int __thiscall TLocDrvRequest::WriteRemoteRaw(void const *,int)
	?ReadRemote@TLocDrvRequest@@QAEHPBXPAVTDes8@@@Z @ 45 NONAME ; public: int __thiscall TLocDrvRequest::ReadRemote(void const *,class TDes8 *)
	?RegisterPagingDevice@LocDrv@@SAHPAVDPrimaryMediaBase@@PBHHIHI@Z @ 46 NONAME ; public: static int __cdecl LocDrv::RegisterPagingDevice(class DPrimaryMediaBase *,int const *,int,unsigned int,int,unsigned int)
	?WriteToPageHandler@TLocDrvRequest@@QAEHPBXHH@Z @ 47 NONAME ; public: int __thiscall TLocDrvRequest::WriteToPageHandler(void const *,int,int)
	?NextLBA@TPartitionTableScanner@@QAE_JXZ @ 48 NONAME ; public: __int64 __thiscall TPartitionTableScanner::NextLBA(void)
	?NumberOfPartitionsFound@TPartitionTableScanner@@QBEHXZ @ 49 NONAME ; public: int __thiscall TPartitionTableScanner::NumberOfPartitionsFound(void)const 
	?Set@TPartitionTableScanner@@QAEXPAEPAVTPartitionEntry@@H_J@Z @ 50 NONAME ; public: void __thiscall TPartitionTableScanner::Set(unsigned char *,class TPartitionEntry *,int,__int64)
	?GetNextPhysicalAddress@TLocDrvRequest@@QAEHAAKAAH@Z @ 51 NONAME ; public: int __thiscall TLocDrvRequest::GetNextPhysicalAddress(unsigned long &,int &)
	?RegisterDmaDevice@LocDrv@@SAHPAVDPrimaryMediaBase@@HHH@Z @ 52 NONAME ; public: static int __cdecl LocDrv::RegisterDmaDevice(class DPrimaryMediaBase *,int,int,int)
	?ReadFromPageHandler@TLocDrvRequest@@QAEHPAXHH@Z @ 53 NONAME ; public: int __thiscall TLocDrvRequest::ReadFromPageHandler(void *,int,int)
	??0DMediaDriverExtension@@QAE@H@Z @ 54 NONAME ; public: __thiscall DMediaDriverExtension::DMediaDriverExtension(int)
	??1DMediaDriverExtension@@UAE@XZ @ 55 NONAME ; public: virtual __thiscall DMediaDriverExtension::~DMediaDriverExtension(void)
	?Caps@DMediaDriverExtension@@QAEHHAAVTDes8@@@Z @ 56 NONAME ; public: int __thiscall DMediaDriverExtension::Caps(int,class TDes8 &)
	?Close@DMediaDriverExtension@@UAEXXZ @ 57 NONAME ; public: virtual void __thiscall DMediaDriverExtension::Close(void)
	?DoDrivePartitionInfo@DMediaDriverExtension@@QAEHAAVTPartitionInfo@@@Z @ 58 NONAME ; public: int __thiscall DMediaDriverExtension::DoDrivePartitionInfo(class TPartitionInfo &)
	?ForwardRequest@DMediaDriverExtension@@QAEHAAVTLocDrvRequest@@@Z @ 59 NONAME ; public: int __thiscall DMediaDriverExtension::ForwardRequest(class TLocDrvRequest &)
	?MediaBusy@DMediaDriverExtension@@QAEHH@Z @ 60 NONAME ; public: int __thiscall DMediaDriverExtension::MediaBusy(int)
	?NotifyEmergencyPowerDown@DMediaDriverExtension@@UAEXXZ @ 61 NONAME ; public: virtual void __thiscall DMediaDriverExtension::NotifyEmergencyPowerDown(void)
	?NotifyPowerDown@DMediaDriverExtension@@UAEXXZ @ 62 NONAME ; public: virtual void __thiscall DMediaDriverExtension::NotifyPowerDown(void)
	?Read@DMediaDriverExtension@@QAEHH_JKI@Z @ 63 NONAME ; public: int __thiscall DMediaDriverExtension::Read(int,__int64,unsigned long,unsigned int)
	?Write@DMediaDriverExtension@@QAEHH_JKI@Z @ 64 NONAME ; public: int __thiscall DMediaDriverExtension::Write(int,__int64,unsigned long,unsigned int)
	?SetTotalSizeInBytes@DMediaDriver@@QAEXAAVTLocalDriveCapsV4@@@Z @ 65 NONAME ; public: void __thiscall DMediaDriver::SetTotalSizeInBytes(class TLocalDriveCapsV4 &)
	?ReadPaged@DMediaDriverExtension@@QAEHH_JKI@Z @ 66 NONAME ; public: int __thiscall DMediaDriverExtension::ReadPaged(int,__int64,unsigned long,unsigned int)
	?WritePaged@DMediaDriverExtension@@QAEHH_JKI@Z @ 67 NONAME ; public: int __thiscall DMediaDriverExtension::WritePaged(int,__int64,unsigned long,unsigned int)
	?Caps@DLocalDrive@@SAHHAAVTDes8@@@Z @ 68 NONAME ; public: static int __cdecl DLocalDrive::Caps(int,class TDes8 &)

