EXPORTS
	??0CBaseExtProxyDrive@@QAE@PAVCProxyDrive@@PAVCMountCB@@@Z @ 1 NONAME ; public: __thiscall CBaseExtProxyDrive::CBaseExtProxyDrive(class CProxyDrive *,class CMountCB *)
	??0CDirCB@@QAE@XZ @ 2 NONAME ; public: __thiscall CDirCB::CDirCB(void)
	??0CFileCB@@QAE@XZ @ 3 NONAME ; public: __thiscall CFileCB::CFileCB(void)
	??0CFileSystem@@QAE@XZ @ 4 NONAME ; public: __thiscall CFileSystem::CFileSystem(void)
	??0CFormatCB@@QAE@XZ @ 5 NONAME ; public: __thiscall CFormatCB::CFormatCB(void)
	??0CFsObject@@QAE@XZ @ 6 NONAME ; public: __thiscall CFsObject::CFsObject(void)
	??0CFsObjectCon@@IAE@H@Z @ 7 NONAME ABSENT ; protected: __thiscall CFsObjectCon::CFsObjectCon(int)
	??0CLocDrvMountCB@@QAE@XZ @ 8 NONAME ; public: __thiscall CLocDrvMountCB::CLocDrvMountCB(void)
	??0CMountCB@@QAE@XZ @ 9 NONAME ; public: __thiscall CMountCB::CMountCB(void)
	??0CProxyDriveFactory@@QAE@XZ @ 10 NONAME ; public: __thiscall CProxyDriveFactory::CProxyDriveFactory(void)
	??1CBaseExtProxyDrive@@UAE@XZ @ 11 NONAME ; public: virtual __thiscall CBaseExtProxyDrive::~CBaseExtProxyDrive(void)
	??1CDirCB@@UAE@XZ @ 12 NONAME ; public: virtual __thiscall CDirCB::~CDirCB(void)
	??1CFileCB@@UAE@XZ @ 13 NONAME ; public: virtual __thiscall CFileCB::~CFileCB(void)
	??1CFileSystem@@UAE@XZ @ 14 NONAME ; public: virtual __thiscall CFileSystem::~CFileSystem(void)
	??1CFormatCB@@UAE@XZ @ 15 NONAME ; public: virtual __thiscall CFormatCB::~CFormatCB(void)
	??1CFsObject@@MAE@XZ @ 16 NONAME ; protected: virtual __thiscall CFsObject::~CFsObject(void)
	??1CLocDrvMountCB@@UAE@XZ @ 17 NONAME ; public: virtual __thiscall CLocDrvMountCB::~CLocDrvMountCB(void)
	??1CMountCB@@UAE@XZ @ 18 NONAME ; public: virtual __thiscall CMountCB::~CMountCB(void)
	??9CMountCB@@QBEHABV0@@Z @ 19 NONAME ; public: int __thiscall CMountCB::operator!=(class CMountCB const &)const 
	?Address@CFileCB@@UBEHAAH@Z @ 20 NONAME ; public: virtual int __thiscall CFileCB::Address(int &)const 
	?AllocBufferL@@YAXAAPAVHBufC16@@ABVTDesC16@@@Z @ 21 NONAME ; void __cdecl AllocBufferL(class HBufC16 * &,class TDesC16 const &)
	?Att@TDrive@@QAEIXZ @ 22 NONAME ; public: unsigned int __thiscall TDrive::Att(void)
	?Caps@CBaseExtProxyDrive@@UAEHAAVTDes8@@@Z @ 23 NONAME ; public: virtual int __thiscall CBaseExtProxyDrive::Caps(class TDes8 &)
	?CheckMount@CFormatCB@@QAEHXZ @ 24 NONAME ; public: int __thiscall CFormatCB::CheckMount(void)
	?Clear@CBaseExtProxyDrive@@UAEHAAV?$TBuf8@$0BA@@@@Z @ 25 NONAME ; public: virtual int __thiscall CBaseExtProxyDrive::Clear(class TBuf8<16> &)
	?Close@CFsDispatchObject@@UAEXXZ @ 26 NONAME ; public: virtual void __thiscall CFsDispatchObject::Close(void)
	?Close@CFsObject@@UAEXXZ @ 27 NONAME ; public: virtual void __thiscall CFsObject::Close(void)
	?CompareFilenames@@YAHABVTDesC16@@0@Z @ 28 NONAME ; int __cdecl CompareFilenames(class TDesC16 const &,class TDesC16 const &)
	?ControlIO@CBaseExtProxyDrive@@UAEHABVRMessagePtr2@@HPAX1@Z @ 29 NONAME ; public: virtual int __thiscall CBaseExtProxyDrive::ControlIO(class RMessagePtr2 const &,int,void *,void *)
	?ControlIO@CProxyDrive@@UAEHABVRMessagePtr2@@HPAX1@Z @ 30 NONAME ; public: virtual int __thiscall CProxyDrive::ControlIO(class RMessagePtr2 const &,int,void *,void *)
	?CreateLocalDrive@CLocDrvMountCB@@QAEHAAVTBusLocalDrive@@@Z @ 31 NONAME ; public: int __thiscall CLocDrvMountCB::CreateLocalDrive(class TBusLocalDrive &)
	?CreateProxyDriveL@@YAPAVCProxyDrive@@PAV1@PAVCMountCB@@@Z @ 32 NONAME ; class CProxyDrive * __cdecl CreateProxyDriveL(class CProxyDrive *,class CMountCB *)
	?DebugNotifySessions@@YAXHH@Z @ 33 NONAME ; void __cdecl DebugNotifySessions(int,int)
	?DebugRegister@@YAKXZ @ 34 NONAME ; unsigned long __cdecl DebugRegister(void)
	?Dismount@TDrive@@QAEXXZ @ 35 NONAME ; public: void __thiscall TDrive::Dismount(void)
	?Dismounted@CBaseExtProxyDrive@@UAEHXZ @ 36 NONAME ; public: virtual int __thiscall CBaseExtProxyDrive::Dismounted(void)
	?DismountedLocalDrive@CLocDrvMountCB@@QAEXXZ @ 37 NONAME ; public: void __thiscall CLocDrvMountCB::DismountedLocalDrive(void)
	?DriveFault@TDrive@@ABEXH@Z @ 38 NONAME ; private: void __thiscall TDrive::DriveFault(int)const 
	?Enlarge@CBaseExtProxyDrive@@UAEHH@Z @ 39 NONAME ; public: virtual int __thiscall CBaseExtProxyDrive::Enlarge(int)
	?ForceRemount@CBaseExtProxyDrive@@UAEHI@Z @ 40 NONAME ; public: virtual int __thiscall CBaseExtProxyDrive::ForceRemount(unsigned int)
	?Format@CBaseExtProxyDrive@@UAEHAAVTFormatInfo@@@Z @ 41 NONAME ; public: virtual int __thiscall CBaseExtProxyDrive::Format(class TFormatInfo &)
	?Format@CBaseExtProxyDrive@@UAEH_JH@Z @ 42 NONAME ; public: virtual int __thiscall CBaseExtProxyDrive::Format(__int64,int)
	?GetLocalDrive@@YAAAVTBusLocalDrive@@H@Z @ 43 NONAME ; class TBusLocalDrive & __cdecl GetLocalDrive(int)
	?GetNotifyUser@TDrive@@QAEHXZ @ 44 NONAME ; public: int __thiscall TDrive::GetNotifyUser(void)
	?InitLocalDrive@CLocDrvMountCB@@QAEHXZ @ 45 NONAME ; public: int __thiscall CLocDrvMountCB::InitLocalDrive(void)
	?Initialise@CBaseExtProxyDrive@@UAEHXZ @ 46 NONAME ; public: virtual int __thiscall CBaseExtProxyDrive::Initialise(void)
	?IsCorrectThread@CFsDispatchObject@@UAEHXZ @ 47 NONAME ; public: virtual int __thiscall CFsDispatchObject::IsCorrectThread(void)
	?IsCorrectThread@CFsObject@@UAEHXZ @ 48 NONAME ; public: virtual int __thiscall CFsObject::IsCorrectThread(void)
	?IsCurrentWriteFunction@TDrive@@QBEHXZ @ 49 NONAME ; public: int __thiscall TDrive::IsCurrentWriteFunction(void)const 
	?IsDriveThread@TDrive@@ABEHXZ @ 50 NONAME ; private: int __thiscall TDrive::IsDriveThread(void)const 
	?IsExtensionSupported@CFileSystem@@UBEHXZ @ 51 NONAME ; public: virtual int __thiscall CFileSystem::IsExtensionSupported(void)const 
	?IsFileInRom@CMountCB@@UAEXABVTDesC16@@AAPAE@Z @ 52 NONAME ; public: virtual void __thiscall CMountCB::IsFileInRom(class TDesC16 const &,unsigned char * &)
	?IsMainThread@TDrive@@ABEHXZ @ 53 NONAME ; private: int __thiscall TDrive::IsMainThread(void)const 
	?IsValidLocalDriveMapping@@YAHH@Z @ 54 NONAME ; int __cdecl IsValidLocalDriveMapping(int)
	?IsWriteableResource@TDrive@@QBEHXZ @ 55 NONAME ; public: int __thiscall TDrive::IsWriteableResource(void)const 
	?Library@CFileSystem@@QBE?AVRLibrary@@XZ @ 56 NONAME ; public: class RLibrary  __thiscall CFileSystem::Library(void)const 
	?Lock@CBaseExtProxyDrive@@UAEHAAV?$TBuf8@$0BA@@@0H@Z @ 57 NONAME ; public: virtual int __thiscall CBaseExtProxyDrive::Lock(class TBuf8<16> &,class TBuf8<16> &,int)
	?MatchEntryAtt@CMountCB@@QBEHII@Z @ 58 NONAME ; public: int __thiscall CMountCB::MatchEntryAtt(unsigned int,unsigned int)const 
	?Name@CFsObject@@QBE?AV?$TBuf@$0IA@@@XZ @ 59 NONAME ; public: class TBuf<128>  __thiscall CFsObject::Name(void)const 
	?Notify@CAsyncNotifier@@QAEHABVTDesC16@@000AAH@Z @ 60 NONAME ; public: int __thiscall CAsyncNotifier::Notify(class TDesC16 const &,class TDesC16 const &,class TDesC16 const &,class TDesC16 const &,int &)
	?Open@CFsObject@@UAEHXZ @ 61 NONAME ; public: virtual int __thiscall CFsObject::Open(void)
	?QueryVersionSupported@CFileSystem@@UBEHABVTVersion@@@Z @ 62 NONAME ; public: virtual int __thiscall CFileSystem::QueryVersionSupported(class TVersion const &)const 
	?Read@CBaseExtProxyDrive@@UAEH_JHAAVTDes8@@@Z @ 63 NONAME ; public: virtual int __thiscall CBaseExtProxyDrive::Read(__int64,int,class TDes8 &)
	?Read@CBaseExtProxyDrive@@UAEH_JHPBXHH@Z @ 64 NONAME ; public: virtual int __thiscall CBaseExtProxyDrive::Read(__int64,int,void const *,int,int)
	?ReduceSize@CBaseExtProxyDrive@@UAEHHH@Z @ 65 NONAME ; public: virtual int __thiscall CBaseExtProxyDrive::ReduceSize(int,int)
	?Remove@CFileSystem@@UAEHXZ @ 66 NONAME ; public: virtual int __thiscall CFileSystem::Remove(void)
	?Remove@CProxyDriveFactory@@UAEHXZ @ 67 NONAME ; public: virtual int __thiscall CProxyDriveFactory::Remove(void)
	?SetArchiveAttribute@CFileCB@@QAEXXZ @ 68 NONAME ; public: void __thiscall CFileCB::SetArchiveAttribute(void)
	?SetDiskSpaceChange@CMountCB@@QAEX_J@Z @ 69 NONAME ; public: void __thiscall CMountCB::SetDiskSpaceChange(__int64)
	?SetLibrary@CFileSystem@@QAEXVRLibrary@@@Z @ 70 NONAME ; public: void __thiscall CFileSystem::SetLibrary(class RLibrary)
	?SetMountInfo@CBaseExtProxyDrive@@UAEHPBVTDesC8@@H@Z @ 71 NONAME ; public: virtual int __thiscall CBaseExtProxyDrive::SetMountInfo(class TDesC8 const *,int)
	?SetName@CFsObject@@QAEHPBVTDesC16@@@Z @ 72 NONAME ; public: int __thiscall CFsObject::SetName(class TDesC16 const *)
	?StoreLongEntryNameL@CDirCB@@UAEXABVTDesC16@@@Z @ 73 NONAME ; public: virtual void __thiscall CDirCB::StoreLongEntryNameL(class TDesC16 const &)
	??1CAsyncNotifier@@UAE@XZ @ 74 NONAME ; public: virtual __thiscall CAsyncNotifier::~CAsyncNotifier(void)
	?Unlock@CBaseExtProxyDrive@@UAEHAAV?$TBuf8@$0BA@@@H@Z @ 75 NONAME ; public: virtual int __thiscall CBaseExtProxyDrive::Unlock(class TBuf8<16> &,int)
	?Write@CBaseExtProxyDrive@@UAEH_JABVTDesC8@@@Z @ 76 NONAME ; public: virtual int __thiscall CBaseExtProxyDrive::Write(__int64,class TDesC8 const &)
	?Write@CBaseExtProxyDrive@@UAEH_JHPBXHH@Z @ 77 NONAME ; public: virtual int __thiscall CBaseExtProxyDrive::Write(__int64,int,void const *,int,int)
	?WriteToDisk@@YAXABVTDesC16@@ABVTDesC8@@@Z @ 78 NONAME ; void __cdecl WriteToDisk(class TDesC16 const &,class TDesC8 const &)
	?Read@CBaseExtProxyDrive@@UAEH_JHPBXHHH@Z @ 79 NONAME ; public: virtual int __thiscall CBaseExtProxyDrive::Read(__int64,int,void const *,int,int,int)
	?Read@CProxyDrive@@UAEH_JHPBXHHH@Z @ 80 NONAME ; public: virtual int __thiscall CProxyDrive::Read(__int64,int,void const *,int,int,int)
	?Write@CBaseExtProxyDrive@@UAEH_JHPBXHHH@Z @ 81 NONAME ; public: virtual int __thiscall CBaseExtProxyDrive::Write(__int64,int,void const *,int,int,int)
	?Write@CProxyDrive@@UAEH_JHPBXHHH@Z @ 82 NONAME ; public: virtual int __thiscall CProxyDrive::Write(__int64,int,void const *,int,int,int)
	?GetFileSystem@@YAPAVCFileSystem@@ABVTDesC16@@@Z @ 83 NONAME ; class CFileSystem * __cdecl GetFileSystem(class TDesC16 const &)
	?InitL@CDirCB@@QAEXPAVTDrive@@@Z @ 84 NONAME ; public: void __thiscall CDirCB::InitL(class TDrive *)
	?InitL@CFileCB@@QAEXPAVTDrive@@0PAVHBufC16@@@Z @ 85 NONAME ; public: void __thiscall CFileCB::InitL(class TDrive *,class TDrive *,class HBufC16 *)
	?DeleteNotify@CProxyDrive@@UAEH_JH@Z @ 86 NONAME ; public: virtual int __thiscall CProxyDrive::DeleteNotify(__int64,int)
	?ErasePassword@CBaseExtProxyDrive@@UAEHXZ @ 87 NONAME ; public: virtual int __thiscall CBaseExtProxyDrive::ErasePassword(void)
	?New@CAsyncNotifier@@SAPAV1@XZ @ 88 NONAME ; public: static class CAsyncNotifier * __cdecl CAsyncNotifier::New(void)
	?DriveNumberToLocalDriveNumber@@YAHH@Z @ 89 NONAME ; int __cdecl DriveNumberToLocalDriveNumber(int)
	?GetInterface@CBaseExtProxyDrive@@MAEHHAAPAXPAX@Z @ 90 NONAME ; int CBaseExtProxyDrive::GetInterface(int, void * &, void *)
	?GetInterface@CDirCB@@MAEHHAAPAXPAX@Z @ 91 NONAME ; int CDirCB::GetInterface(int, void * &, void *)
	?GetInterface@CFileCB@@MAEHHAAPAXPAX@Z @ 92 NONAME ; int CFileCB::GetInterface(int, void * &, void *)
	?GetInterface@CFileSystem@@MAEHHAAPAXPAX@Z @ 93 NONAME ; int CFileSystem::GetInterface(int, void * &, void *)
	?GetInterface@CFormatCB@@MAEHHAAPAXPAX@Z @ 94 NONAME ; int CFormatCB::GetInterface(int, void * &, void *)
	?GetInterface@CMountCB@@MAEHHAAPAXPAX@Z @ 95 NONAME ; int CMountCB::GetInterface(int, void * &, void *)
	?GetInterface@CProxyDrive@@MAEHHAAPAXPAX@Z @ 96 NONAME ; int CProxyDrive::GetInterface(int, void * &, void *)
	?GetFatUtilityFunctions@@YAPBUTFatUtilityFunctions@@XZ @ 97 NONAME ; struct TFatUtilityFunctions const * GetFatUtilityFunctions(void)
	??0CFsPlugin@@QAE@XZ @ 98 NONAME ; public: __thiscall CFsPlugin::CFsPlugin(void)
	??0CFsPluginConn@@QAE@XZ @ 99 NONAME ; public: __thiscall CFsPluginConn::CFsPluginConn(void)
	??0CFsPluginFactory@@QAE@XZ @ 100 NONAME ; public: __thiscall CFsPluginFactory::CFsPluginFactory(void)
	??0TFsPluginRequest@@QAE@PAVCFsRequest@@@Z @ 101 NONAME ; public: __thiscall TFsPluginRequest::TFsPluginRequest(class CFsRequest *)
	??1CFsPlugin@@UAE@XZ @ 102 NONAME ; public: virtual __thiscall CFsPlugin::~CFsPlugin(void)
	??1CFsPluginConn@@UAE@XZ @ 103 NONAME ; public: virtual __thiscall CFsPluginConn::~CFsPluginConn(void)
	??1CFsPluginFactory@@UAE@XZ @ 104 NONAME ; public: virtual __thiscall CFsPluginFactory::~CFsPluginFactory(void)
	?Close@CFsPluginConn@@EAEXXZ @ 105 NONAME ; private: virtual void __thiscall CFsPluginConn::Close(void)
	?Deliver@CFsPlugin@@MAEHAAVTFsPluginRequest@@@Z @ 106 NONAME ; protected: virtual int __thiscall CFsPlugin::Deliver(class TFsPluginRequest &)
	?Dest@TFsPluginRequest@@QBEAAVTParse@@XZ @ 107 NONAME ; public: class TParse & __thiscall TFsPluginRequest::Dest(void)const 
	?DoCancelAll@TPluginConnRequestQue@@QAEXH@Z @ 108 NONAME ; public: void __thiscall TPluginConnRequestQue::DoCancelAll(int)
	?Drive@TFsPluginRequest@@QBEPAVTDrive@@XZ @ 109 NONAME ; public: class TDrive * __thiscall TFsPluginRequest::Drive(void)const 
	?DriveNumber@TFsPluginRequest@@QBEHXZ @ 110 NONAME ; public: int __thiscall TFsPluginRequest::DriveNumber(void)const 
	?Function@TFsPluginRequest@@QBEHXZ @ 111 NONAME ; public: int __thiscall TFsPluginRequest::Function(void)const 
	?GetAtt@@YAHPAVTFsPluginRequest@@AAH@Z @ 112 NONAME ; int __cdecl GetAtt(class TFsPluginRequest *,int &)
	?GetFileAccessInfo@@YAHPAVTFsPluginRequest@@AAH1@Z @ 113 NONAME ; int __cdecl GetFileAccessInfo(class TFsPluginRequest *,int &,int &)
	?GetModifiedTime@@YAHPAVTFsPluginRequest@@AAPAVTTime@@H@Z @ 114 NONAME ; int __cdecl GetModifiedTime(class TFsPluginRequest *,class TTime * &,int)
	?GetName@@YAHPAVTFsPluginRequest@@AAVTDes16@@@Z @ 115 NONAME ; int __cdecl GetName(class TFsPluginRequest *,class TDes16 &)
	?GetNewName@@YAHPAVTFsPluginRequest@@AAVTDes16@@@Z @ 116 NONAME ; int __cdecl GetNewName(class TFsPluginRequest *,class TDes16 &)
	?GetPath@@YAHPAVTFsPluginRequest@@AAVTDes16@@@Z @ 117 NONAME ; int __cdecl GetPath(class TFsPluginRequest *,class TDes16 &)
	?InitialiseL@CFsPlugin@@MAEXXZ @ 118 NONAME ; protected: virtual void __thiscall CFsPlugin::InitialiseL(void)
	?Library@CFsPluginFactory@@QBE?AVRLibrary@@XZ @ 119 NONAME ; public: class RLibrary  __thiscall CFsPluginFactory::Library(void)const 
	?Message@TFsPluginRequest@@QBEABVRMessage2@@XZ @ 120 NONAME ; public: class RMessage2 const & __thiscall TFsPluginRequest::Message(void)const 
	?NewPluginConnL@CFsPlugin@@MAEPAVCFsPluginConn@@XZ @ 121 NONAME ; protected: virtual class CFsPluginConn * __thiscall CFsPlugin::NewPluginConnL(void)
	?RegisterIntercept@CFsPlugin@@IAEHHW4TInterceptAtts@1@@Z @ 122 NONAME ; protected: int __thiscall CFsPlugin::RegisterIntercept(int,enum CFsPlugin::TInterceptAtts)
	?Remove@CFsPluginFactory@@UAEHXZ @ 123 NONAME ; public: virtual int __thiscall CFsPluginFactory::Remove(void)
	?Request@TFsPluginRequest@@QBEPAVCFsRequest@@XZ @ 124 NONAME ; public: class CFsRequest * __thiscall TFsPluginRequest::Request(void)const 
	?ScratchValue64@TFsPluginRequest@@QBE_JXZ @ 125 NONAME ; public: __int64 __thiscall TFsPluginRequest::ScratchValue64(void)const 
	?ScratchValue@TFsPluginRequest@@QBEIXZ @ 126 NONAME ; public: unsigned int __thiscall TFsPluginRequest::ScratchValue(void)const 
	?SetLibrary@CFsPluginFactory@@QAEXVRLibrary@@@Z @ 127 NONAME ; public: void __thiscall CFsPluginFactory::SetLibrary(class RLibrary)
	?Src@TFsPluginRequest@@QBEAAVTParse@@XZ @ 128 NONAME ; public: class TParse & __thiscall TFsPluginRequest::Src(void)const 
	?SubstedDrive@TFsPluginRequest@@QBEPAVTDrive@@XZ @ 129 NONAME ; public: class TDrive * __thiscall TFsPluginRequest::SubstedDrive(void)const 
	?UnregisterIntercept@CFsPlugin@@IAEHHW4TInterceptAtts@1@@Z @ 130 NONAME ; protected: int __thiscall CFsPlugin::UnregisterIntercept(int,enum CFsPlugin::TInterceptAtts)
	?GetLastErrorInfo@CBaseExtProxyDrive@@UAEHAAVTDes8@@@Z @ 131 NONAME ; int CBaseExtProxyDrive::GetLastErrorInfo(class TDes8 &)
	?GetLastErrorInfo@CProxyDrive@@UAEHAAVTDes8@@@Z @ 132 NONAME ; int CProxyDrive::GetLastErrorInfo(class TDes8 &)
	?IsPostOperation@TFsPluginRequest@@QBEHXZ @ 133 NONAME ; public: int __thiscall TFsPluginRequest::IsPostOperation(void)const 
	?DeleteNotify@CBaseExtProxyDrive@@UAEH_JH@Z @ 134 NONAME ; public: virtual int __thiscall CBaseExtProxyDrive::DeleteNotify(__int64,int)
	?GetLocalDrive@CProxyDrive@@QAEHAAPAVTBusLocalDrive@@@Z @ 135 NONAME ; public: int __thiscall CProxyDrive::GetLocalDrive(class TBusLocalDrive * &)
	?UNUSED1@@YAXXZ @ 136 NONAME ; void __cdecl UNUSED1(void)
	?UNUSED2@@YAXXZ @ 137 NONAME ; void __cdecl UNUSED2(void)
	?UNUSED3@@YAXXZ @ 138 NONAME ; void __cdecl UNUSED3(void)
	?IsFileClamped@CMountCB@@QAEH_J@Z @ 139 NONAME ; public: int __thiscall CMountCB::IsFileClamped(__int64)
	?GetLocalDriveNumber@@YAHPAVTBusLocalDrive@@@Z @ 140 NONAME ; int __cdecl GetLocalDriveNumber(class TBusLocalDrive *)
	?GetBool@F32Properties@@SAHABVTDesC8@@0AAH@Z @ 141 NONAME ; public: static int __cdecl F32Properties::GetBool(class TDesC8 const &,class TDesC8 const &,int &)
	?GetInt@F32Properties@@SAHABVTDesC8@@0AAJ@Z @ 142 NONAME ; public: static int __cdecl F32Properties::GetInt(class TDesC8 const &,class TDesC8 const &,long &)
	?GetString@F32Properties@@SAHABVTDesC8@@0AAVTDes8@@@Z @ 143 NONAME ; public: static int __cdecl F32Properties::GetString(class TDesC8 const &,class TDesC8 const &,class TDes8 &)
	?Initialise@F32Properties@@SAHHH@Z @ 144 NONAME ; public: static int __cdecl F32Properties::Initialise(int,int)
	?ClientRead@CFsPlugin@@KAHAAVTFsPluginRequest@@AAVTDes8@@H@Z @ 145 NONAME ; protected: static int __cdecl CFsPlugin::ClientRead(class TFsPluginRequest &,class TDes8 &,int)
	?ClientWrite@CFsPlugin@@KAHAAVTFsPluginRequest@@ABVTDesC8@@H@Z @ 146 NONAME ; protected: static int __cdecl CFsPlugin::ClientWrite(class TFsPluginRequest &,class TDesC8 const &,int)
	?FileRead@CFsPlugin@@IAEHAAVTFsPluginRequest@@AAVTDes8@@_J@Z @ 147 NONAME ; protected: int __thiscall CFsPlugin::FileRead(class TFsPluginRequest &,class TDes8 &,__int64)
	?FileWrite@CFsPlugin@@IAEHAAVTFsPluginRequest@@ABVTDesC8@@_J@Z @ 148 NONAME ; protected: int __thiscall CFsPlugin::FileWrite(class TFsPluginRequest &,class TDesC8 const &,__int64)
	??0RDirPlugin@@QAE@AAVTFsPluginRequest@@H@Z @ 149 NONAME ; public: __thiscall RDirPlugin::RDirPlugin(class TFsPluginRequest &,int)
	??0RFilePlugin@@QAE@AAVTFsPluginRequest@@H@Z @ 150 NONAME ; public: __thiscall RFilePlugin::RFilePlugin(class TFsPluginRequest &,int)
	??0RFsPlugin@@QAE@AAVTFsPluginRequest@@H@Z @ 151 NONAME ; public: __thiscall RFsPlugin::RFsPlugin(class TFsPluginRequest &,int)
	?AdoptFromClient@RFilePlugin@@QAEHXZ @ 152 NONAME ; public: int __thiscall RFilePlugin::AdoptFromClient(void)
	?Att@RFilePlugin@@QBEHAAI@Z @ 153 NONAME ; public: int __thiscall RFilePlugin::Att(unsigned int &)const 
	?ChangeMode@RFilePlugin@@QAEHW4TFileMode@@@Z @ 154 NONAME ; public: int __thiscall RFilePlugin::ChangeMode(enum TFileMode)
	?Close@RDirPlugin@@QAEXXZ @ 155 NONAME ; public: void __thiscall RDirPlugin::Close(void)
	?Close@RFilePlugin@@QAEXXZ @ 156 NONAME ; public: void __thiscall RFilePlugin::Close(void)
	?Close@RFsPlugin@@QAEXXZ @ 157 NONAME ; public: void __thiscall RFsPlugin::Close(void)
	?Connect@RFsPlugin@@QAEHXZ @ 158 NONAME ; public: int __thiscall RFsPlugin::Connect(void)
	?Create@RFilePlugin@@QAEHABVTDesC16@@I@Z @ 159 NONAME ; public: int __thiscall RFilePlugin::Create(class TDesC16 const &,unsigned int)
	?Delete@RFsPlugin@@QAEHABVTDesC16@@@Z @ 160 NONAME ; public: int __thiscall RFsPlugin::Delete(class TDesC16 const &)
	?Entry@RFsPlugin@@QBEHABVTDesC16@@AAVTEntry@@@Z @ 161 NONAME ; public: int __thiscall RFsPlugin::Entry(class TDesC16 const &,class TEntry &)const 
	?Flush@RFilePlugin@@QAEHXZ @ 162 NONAME ; public: int __thiscall RFilePlugin::Flush(void)
	?Lock@RFilePlugin@@QBEH_J0@Z @ 163 NONAME ; public: int __thiscall RFilePlugin::Lock(__int64,__int64)const 
	?Modified@RFilePlugin@@QBEHAAVTTime@@@Z @ 164 NONAME ; public: int __thiscall RFilePlugin::Modified(class TTime &)const 
	?FileName@TFsPluginRequest@@QAEHAAVTDes16@@@Z @ 165 NONAME ; public: int __thiscall TFsPluginRequest::FileName(class TDes16 &)
	?Open@RDirPlugin@@QAEHABVTDesC16@@ABVTUidType@@@Z @ 166 NONAME ; public: int __thiscall RDirPlugin::Open(class TDesC16 const &,class TUidType const &)
	?Open@RDirPlugin@@QAEHABVTDesC16@@I@Z @ 167 NONAME ; public: int __thiscall RDirPlugin::Open(class TDesC16 const &,unsigned int)
	?Open@RFilePlugin@@QAEHABVTDesC16@@I@Z @ 168 NONAME ; public: int __thiscall RFilePlugin::Open(class TDesC16 const &,unsigned int)
	?Read@RDirPlugin@@QAEHAAVTEntry@@@Z @ 169 NONAME ; public: int __thiscall RDirPlugin::Read(class TEntry &)
	?Read@RDirPlugin@@QAEHAAVTEntryArray@@@Z @ 170 NONAME ; public: int __thiscall RDirPlugin::Read(class TEntryArray &)
	?Read@RFilePlugin@@QBEH_JAAVTDes8@@@Z @ 171 NONAME ; public: int __thiscall RFilePlugin::Read(__int64,class TDes8 &)const 
	?Read@RFilePlugin@@QBEH_JAAVTDes8@@H@Z @ 172 NONAME ; public: int __thiscall RFilePlugin::Read(__int64,class TDes8 &,int)const 
	?Read@TFsPluginRequest@@QAEHW4TF32ArgType@1@AAH@Z @ 173 NONAME ; public: int __thiscall TFsPluginRequest::Read(enum TFsPluginRequest::TF32ArgType,int &)
	?Read@TFsPluginRequest@@QAEHW4TF32ArgType@1@AAI@Z @ 174 NONAME ; public: int __thiscall TFsPluginRequest::Read(enum TFsPluginRequest::TF32ArgType,unsigned int &)
	?Read@TFsPluginRequest@@QAEHW4TF32ArgType@1@AAVTDes16@@H@Z @ 175 NONAME ; public: int __thiscall TFsPluginRequest::Read(enum TFsPluginRequest::TF32ArgType,class TDes16 &,int)
	?Read@TFsPluginRequest@@QAEHW4TF32ArgType@1@AAVTDes8@@H@Z @ 176 NONAME ; public: int __thiscall TFsPluginRequest::Read(enum TFsPluginRequest::TF32ArgType,class TDes8 &,int)
	?Read@TFsPluginRequest@@QAEHW4TF32ArgType@1@AA_J@Z @ 177 NONAME ; public: int __thiscall TFsPluginRequest::Read(enum TFsPluginRequest::TF32ArgType,__int64 &)
	?ReadFileSection@RFsPlugin@@QBEHABVTDesC16@@_JAAVTDes8@@H@Z @ 178 NONAME ; public: int __thiscall RFsPlugin::ReadFileSection(class TDesC16 const &,__int64,class TDes8 &,int)const 
	?Rename@RFilePlugin@@QAEHABVTDesC16@@@Z @ 179 NONAME ; public: int __thiscall RFilePlugin::Rename(class TDesC16 const &)
	?Rename@RFsPlugin@@QAEHABVTDesC16@@0@Z @ 180 NONAME ; public: int __thiscall RFsPlugin::Rename(class TDesC16 const &,class TDesC16 const &)
	?Replace@RFilePlugin@@QAEHABVTDesC16@@I@Z @ 181 NONAME ; public: int __thiscall RFilePlugin::Replace(class TDesC16 const &,unsigned int)
	?Replace@RFsPlugin@@QAEHABVTDesC16@@0@Z @ 182 NONAME ; public: int __thiscall RFsPlugin::Replace(class TDesC16 const &,class TDesC16 const &)
	?Seek@RFilePlugin@@QBEHW4TSeek@@AA_J@Z @ 183 NONAME ; public: int __thiscall RFilePlugin::Seek(enum TSeek,__int64 &)const 
	?Set@RFilePlugin@@QAEHABVTTime@@II@Z @ 184 NONAME ; public: int __thiscall RFilePlugin::Set(class TTime const &,unsigned int,unsigned int)
	?SetAtt@RFilePlugin@@QAEHII@Z @ 185 NONAME ; public: int __thiscall RFilePlugin::SetAtt(unsigned int,unsigned int)
	?SetEntry@RFsPlugin@@QAEHABVTDesC16@@ABVTTime@@II@Z @ 186 NONAME ; public: int __thiscall RFsPlugin::SetEntry(class TDesC16 const &,class TTime const &,unsigned int,unsigned int)
	?SetModified@RFilePlugin@@QAEHABVTTime@@@Z @ 187 NONAME ; public: int __thiscall RFilePlugin::SetModified(class TTime const &)
	?SetSize@RFilePlugin@@QAEH_J@Z @ 188 NONAME ; public: int __thiscall RFilePlugin::SetSize(__int64)
	?Size@RFilePlugin@@QBEHAA_J@Z @ 189 NONAME ; public: int __thiscall RFilePlugin::Size(__int64 &)const 
	?Temp@RFilePlugin@@QAEHABVTDesC16@@AAV?$TBuf@$0BAA@@@I@Z @ 190 NONAME ; public: int __thiscall RFilePlugin::Temp(class TDesC16 const &,class TBuf<256> &,unsigned int)
	?TransferToClient@RFilePlugin@@QAEHXZ @ 191 NONAME ; public: int __thiscall RFilePlugin::TransferToClient(void)
	?UnLock@RFilePlugin@@QBEH_J0@Z @ 192 NONAME ; public: int __thiscall RFilePlugin::UnLock(__int64,__int64)const 
	?Write@RFilePlugin@@QAEH_JABVTDesC8@@@Z @ 193 NONAME ; public: int __thiscall RFilePlugin::Write(__int64,class TDesC8 const &)
	?Write@RFilePlugin@@QAEH_JABVTDesC8@@H@Z @ 194 NONAME ; public: int __thiscall RFilePlugin::Write(__int64,class TDesC8 const &,int)
	?Write@TFsPluginRequest@@QAEHW4TF32ArgType@1@ABVTDesC16@@H@Z @ 195 NONAME ; public: int __thiscall TFsPluginRequest::Write(enum TFsPluginRequest::TF32ArgType,class TDesC16 const &,int)
	?Write@TFsPluginRequest@@QAEHW4TF32ArgType@1@ABVTDesC8@@H@Z @ 196 NONAME ; public: int __thiscall TFsPluginRequest::Write(enum TFsPluginRequest::TF32ArgType,class TDesC8 const &,int)
	??1RDirPlugin@@QAE@XZ @ 197 NONAME ; public: __thiscall RDirPlugin::~RDirPlugin(void)
	??1RFilePlugin@@QAE@XZ @ 198 NONAME ; public: __thiscall RFilePlugin::~RFilePlugin(void)
	??1RFsPlugin@@QAE@XZ @ 199 NONAME ; public: __thiscall RFsPlugin::~RFsPlugin(void)
	?Buf@TRawEntryArray@@QAEAAVTDes8@@XZ @ 200 NONAME ; public: class TDes8 & __thiscall TRawEntryArray::Buf(void)
	?EntrySize@TRawEntryArray@@QAEHH@Z @ 201 NONAME ; public: int __thiscall TRawEntryArray::EntrySize(int)
	?SetBuf@TRawEntryArray@@QAEXAAVTDes8@@@Z @ 202 NONAME ; public: void __thiscall TRawEntryArray::SetBuf(class TDes8 &)
	?SetSharePos@TFsPluginRequest@@QAEHAA_J@Z @ 203 NONAME ; public: int __thiscall TFsPluginRequest::SetSharePos(__int64 &)
	??0CExtProxyDrive@@QAE@PAVCMountCB@@PAVCExtProxyDriveFactory@@@Z @ 204 NONAME ; public: __thiscall CExtProxyDrive::CExtProxyDrive(class CMountCB *,class CExtProxyDriveFactory *)
	??0CExtProxyDriveFactory@@QAE@XZ @ 205 NONAME ; public: __thiscall CExtProxyDriveFactory::CExtProxyDriveFactory(void)
	??1CExtProxyDrive@@UAE@XZ @ 206 NONAME ; public: virtual __thiscall CExtProxyDrive::~CExtProxyDrive(void)
	?AddProxyDrive@RFs@@QAEHABVTDesC16@@@Z @ 207 NONAME ; public: int __thiscall RFs::AddProxyDrive(class TDesC16 const &)
	?AsyncEnumerate@CExtProxyDriveFactory@@UAEXXZ @ 208 NONAME ; public: virtual void __thiscall CExtProxyDriveFactory::AsyncEnumerate(void)
	?CreateDrive@CLocDrvMountCB@@QAEHH@Z @ 209 NONAME ; public: int __thiscall CLocDrvMountCB::CreateDrive(int)
	?DismountProxyDrive@RFs@@QAEHI@Z @ 210 NONAME ; public: int __thiscall RFs::DismountProxyDrive(unsigned int)
	?DoMountProxyDrive@RFs@@AAEHABVTIpcArgs@@@Z @ 211 NONAME ; private: int __thiscall RFs::DoMountProxyDrive(class TIpcArgs const &)
	?Finalise@CProxyDrive@@QAEHH@Z @ 212 NONAME ; public: int __thiscall CProxyDrive::Finalise(int)
	?GetInterface@CExtProxyDrive@@MAEHHAAPAXPAX@Z @ 213 NONAME ; protected: virtual int __thiscall CExtProxyDrive::GetInterface(int,void * &,void *)
	?GetProxyDrive@@YAHHAAPAVCProxyDrive@@@Z @ 214 NONAME ; int __cdecl GetProxyDrive(int,class CProxyDrive * &)
	?GetProxyDrive@@YAPAVCExtProxyDrive@@H@Z @ 215 NONAME ; class CExtProxyDrive * __cdecl GetProxyDrive(int)
	?IsProxyDrive@@YAHH@Z @ 216 NONAME ; int __cdecl IsProxyDrive(int)
	?IsProxyDriveSupported@CFileSystem@@QAEHXZ @ 217 NONAME ; public: int __thiscall CFileSystem::IsProxyDriveSupported(void)
	?NotifyChange@CExtProxyDrive@@UAEHAAVTDes8@@PAVTRequestStatus@@@Z @ 218 NONAME ; public: virtual int __thiscall CExtProxyDrive::NotifyChange(class TDes8 &,class TRequestStatus *)
	?Remove@CExtProxyDriveFactory@@UAEHXZ @ 219 NONAME ; public: virtual int __thiscall CExtProxyDriveFactory::Remove(void)
	?RemoveProxyDrive@RFs@@QAEHABVTDesC16@@@Z @ 220 NONAME ; public: int __thiscall RFs::RemoveProxyDrive(class TDesC16 const &)
	?SetInfo@CExtProxyDrive@@UAEHABVRMessage2@@PAX1@Z @ 221 NONAME ; public: virtual int __thiscall CExtProxyDrive::SetInfo(class RMessage2 const &,void *,void *)
	?NotifyChangeCancel@CExtProxyDrive@@UAEXXZ @ 222 NONAME ; public: virtual void __thiscall CExtProxyDrive::NotifyChangeCancel(void)
	?SetSize64@CFileCB@@QAEX_JH@Z @ 223 NONAME ; public: void __thiscall CFileCB::SetSize64(__int64,int)
	?Size64@CFileCB@@QBE_JXZ @ 224 NONAME ; public: __int64 __thiscall CFileCB::Size64(void)const 
	?AllocateAndLockSegments@CCacheMemoryClient@@QAEPAEK@Z @ 225 NONAME ; public: unsigned char * __thiscall CCacheMemoryClient::AllocateAndLockSegments(unsigned long)
	?CacheMemoryManager@CCacheMemoryManagerFactory@@SAPAVCCacheMemoryManager@@XZ @ 226 NONAME ; public: static class CCacheMemoryManager * __cdecl CCacheMemoryManagerFactory::CacheMemoryManager(void)
	?ConnectClientL@CCacheMemoryManager@@QAEPAVCCacheMemoryClient@@ABVTDesC16@@KK@Z @ 227 NONAME ; public: class CCacheMemoryClient * __thiscall CCacheMemoryManager::ConnectClientL(class TDesC16 const &,unsigned long,unsigned long)
	?DecommitSegments@CCacheMemoryClient@@QAEHPAEK@Z @ 228 NONAME ; public: int __thiscall CCacheMemoryClient::DecommitSegments(unsigned char *,unsigned long)
	?LockSegments@CCacheMemoryClient@@QAEHPAEK@Z @ 229 NONAME ; public: int __thiscall CCacheMemoryClient::LockSegments(unsigned char *,unsigned long)
	?Reset@CCacheMemoryClient@@QAEXXZ @ 230 NONAME ; public: void __thiscall CCacheMemoryClient::Reset(void)
	?SegmentSizeInBytesLog2@CCacheMemoryManager@@QBEIXZ @ 231 NONAME ; public: unsigned int __thiscall CCacheMemoryManager::SegmentSizeInBytesLog2(void)const 
	?UnlockSegments@CCacheMemoryClient@@QAEHPAEK@Z @ 232 NONAME ; public: int __thiscall CCacheMemoryClient::UnlockSegments(unsigned char *,unsigned long)
	?SetMaxSupportedSize@CFileCB@@QAEX_K@Z @ 233 NONAME ; public: void __thiscall CFileCB::SetMaxSupportedSize(unsigned __int64)
	?ConvertFromUnicodeL@TCodePageUtils@@QBEXAAVTDes8@@ABVTDesC16@@W4TOverflowAction@1@@Z @ 234 NONAME ; public: void __thiscall TCodePageUtils::ConvertFromUnicodeL(class TDes8 &,class TDesC16 const &,enum TCodePageUtils::TOverflowAction)const 
	?ConvertToUnicodeL@TCodePageUtils@@QBEXAAVTDes16@@ABVTDesC8@@W4TOverflowAction@1@@Z @ 235 NONAME ; public: void __thiscall TCodePageUtils::ConvertToUnicodeL(class TDes16 &,class TDesC8 const &,enum TCodePageUtils::TOverflowAction)const 
	?GetCodePage@@YAABVTCodePageUtils@@XZ @ 236 NONAME ; class TCodePageUtils const & __cdecl GetCodePage(void)
	?IsLegalShortNameCharacter@TCodePageUtils@@QBEHIH@Z @ 237 NONAME ; public: int __thiscall TCodePageUtils::IsLegalShortNameCharacter(unsigned int,int)const 
	?FileSystem@CMountCB@@IBEPAVCFileSystem@@XZ @ 238 NONAME ; protected: class CFileSystem * __thiscall CMountCB::FileSystem(void)const 
	?InitL@CMountCB@@QAEXAAVTDrive@@PAVCFileSystem@@@Z @ 239 NONAME ; public: void __thiscall CMountCB::InitL(class TDrive &,class CFileSystem *)
	?DriveInfo@CFileSystem@@UBEXAAVTDriveInfo@@H@Z @ 240 NONAME ; public: virtual void __thiscall CFileSystem::DriveInfo(class TDriveInfo &,int)const 
	?GetDriveInfo@@YAXAAVTDriveInfo@@H@Z @ 241 NONAME ; void __cdecl GetDriveInfo(class TDriveInfo &,int)
	?Volume@RFsPlugin@@QBEHAAVTVolumeInfo@@H@Z @ 242 NONAME ; public: int __thiscall RFsPlugin::Volume(class TVolumeInfo &,int)const 
	?IsSequentialMode@CFileCB@@QBEHXZ @ 243 NONAME ; public: int __thiscall CFileCB::IsSequentialMode(void)const 
	?DirectIOMode@CFileCB@@QAEHABVRMessagePtr2@@@Z @ 244 NONAME ; int CFileCB::DirectIOMode(class RMessagePtr2 const &)

