EXPORTS
	_Z19CreateLogicalDevicev @ 1 NONAME
	_Z11DmaTestInfov @ 2 NONAME
	_Z13DmaTestInfoV2v @ 3 NONAME
	_ZN11DDmaRequest11FreeDesListEv @ 4 NONAME
	_ZN11DDmaRequest13ExpandDesListEi @ 5 NONAME
	_ZN11DDmaRequest13FragmentCountEv @ 6 NONAME
	_ZN11DDmaRequest14FreeDstDesListEv @ 7 NONAME
	_ZN11DDmaRequest14FreeSrcDesListEv @ 8 NONAME
	_ZN11DDmaRequest16DstFragmentCountEv @ 9 NONAME
	_ZN11DDmaRequest16ExpandDstDesListEi @ 10 NONAME
	_ZN11DDmaRequest16ExpandSrcDesListEi @ 11 NONAME
	_ZN11DDmaRequest16SrcFragmentCountEv @ 12 NONAME
	_ZN11DDmaRequest24EnableDstElementCountingEi @ 13 NONAME
	_ZN11DDmaRequest24EnableSrcElementCountingEi @ 14 NONAME
	_ZN11DDmaRequest25DisableDstElementCountingEv @ 15 NONAME
	_ZN11DDmaRequest25DisableSrcElementCountingEv @ 16 NONAME
	_ZN11DDmaRequest30TotalNumDstElementsTransferredEv @ 17 NONAME
	_ZN11DDmaRequest30TotalNumSrcElementsTransferredEv @ 18 NONAME
	_ZN11DDmaRequest5QueueEv @ 19 NONAME
	_ZN11DDmaRequest8FragmentERK16TDmaTransferArgs @ 20 NONAME
	_ZN11DDmaRequest8FragmentEmmijm @ 21 NONAME
	_ZN11DDmaRequestC1ER11TDmaChannelPFvNS_7TResultEPvES3_i @ 22 NONAME
	_ZN11DDmaRequestC1ER11TDmaChannelPFvj10TDmaResultPvP10SDmaDesHdrES3_j @ 23 NONAME
	_ZN11DDmaRequestC2ER11TDmaChannelPFvNS_7TResultEPvES3_i @ 24 NONAME
	_ZN11DDmaRequestC2ER11TDmaChannelPFvj10TDmaResultPvP10SDmaDesHdrES3_j @ 25 NONAME
	_ZN11DDmaRequestD0Ev @ 26 NONAME
	_ZN11DDmaRequestD1Ev @ 27 NONAME
	_ZN11DDmaRequestD2Ev @ 28 NONAME
	_ZN11TDmaChannel13LinkToChannelEPS_ @ 29 NONAME
	_ZN11TDmaChannel14IsrRedoRequestEmmjmi @ 30 NONAME
	_ZN11TDmaChannel15StaticExtensionEiPv @ 31 NONAME
	_ZN11TDmaChannel16AddressAlignMaskEjjm @ 32 NONAME
	_ZN11TDmaChannel17MaxTransferLengthEjjm @ 33 NONAME
	_ZN11TDmaChannel18MissNextInterruptsEi @ 34 NONAME
	_ZN11TDmaChannel4OpenERKNS_11SCreateInfoERPS_ @ 35 NONAME
	_ZN11TDmaChannel5CloseEv @ 36 NONAME
	_ZN11TDmaChannel5PauseEv @ 37 NONAME
	_ZN11TDmaChannel6ResumeEv @ 38 NONAME
	_ZN11TDmaChannel8DmacCapsEv @ 39 NONAME
	_ZN11TDmaChannel8FailNextEi @ 40 NONAME
	_ZN11TDmaChannel9CancelAllEv @ 41 NONAME
	_ZN11TDmaChannel9ExtensionEiPv @ 42 NONAME
	_ZN16TDmaTransferArgsC1ERK18TDmaTransferConfigS2_mjj15TDmaGraphicsOpsm @ 43 NONAME
	_ZN16TDmaTransferArgsC1Ejjjjjj12TDmaAddrModejj13TDmaBurstSizej15TDmaGraphicsOpsm @ 44 NONAME
	_ZN16TDmaTransferArgsC1Ev @ 45 NONAME
	_ZN16TDmaTransferArgsC2ERK18TDmaTransferConfigS2_mjj15TDmaGraphicsOpsm @ 46 NONAME
	_ZN16TDmaTransferArgsC2Ejjjjjj12TDmaAddrModejj13TDmaBurstSizej15TDmaGraphicsOpsm @ 47 NONAME
	_ZN16TDmaTransferArgsC2Ev @ 48 NONAME
	_ZN18TDmaTransferConfigC1Emj12TDmaAddrModej13TDmaBurstSizejjji @ 49 NONAME
	_ZN18TDmaTransferConfigC1Emjjjiijj13TDmaBurstSizejji @ 50 NONAME
	_ZN18TDmaTransferConfigC1Ev @ 51 NONAME
	_ZN18TDmaTransferConfigC2Emj12TDmaAddrModej13TDmaBurstSizejjji @ 52 NONAME
	_ZN18TDmaTransferConfigC2Emjjjiijj13TDmaBurstSizejji @ 53 NONAME
	_ZN18TDmaTransferConfigC2Ev @ 54 NONAME

