EXPORTS
	_ZN20DUsbClientController10PowerUpUdcEv @ 1 NONAME
	_ZN20DUsbClientController10UsbConnectEv @ 2 NONAME
	_ZN20DUsbClientController11ReEnumerateEv @ 3 NONAME
	_ZN20DUsbClientController12HaltEndpointEPK5DBasei @ 4 NONAME
	_ZN20DUsbClientController12SetInterfaceEPK5DBaseP7DThreadiR14TUsbcClassInfoP6TDesC8iPK17TUsbcEndpointInfoPA6_im @ 5 NONAME
	_ZN20DUsbClientController13UsbDisconnectEv @ 6 NONAME
	_ZN20DUsbClientController15SetupReadBufferER20TUsbcRequestCallback @ 7 NONAME
	_ZN20DUsbClientController16CancelReadBufferEPK5DBasei @ 8 NONAME
	_ZN20DUsbClientController16DeRegisterClientEPK5DBase @ 9 NONAME
	_ZN20DUsbClientController16ReleaseInterfaceEPK5DBasei @ 10 NONAME
	_ZN20DUsbClientController16SetDeviceControlEPK5DBase @ 11 NONAME
	_ZN20DUsbClientController16SetOtgDescriptorEP7DThreadRK6TDesC8 @ 12 NONAME
	_ZN20DUsbClientController16SetupWriteBufferER20TUsbcRequestCallback @ 13 NONAME
	_ZN20DUsbClientController17CancelWriteBufferEPK5DBasei @ 14 NONAME
	_ZN20DUsbClientController17ClearHaltEndpointEPK5DBasei @ 15 NONAME
	_ZN20DUsbClientController17EnableClientStackEv @ 16 NONAME
	_ZN20DUsbClientController18DisableClientStackEv @ 17 NONAME
	_ZN20DUsbClientController18EndpointPacketSizeEPK5DBasei @ 18 NONAME
	_ZN20DUsbClientController19GetDeviceDescriptorEP7DThreadR5TDes8 @ 19 NONAME
	_ZN20DUsbClientController19GetStringDescriptorEP7DThreadhR5TDes8 @ 20 NONAME
	_ZN20DUsbClientController19SendEp0StatusPacketEPK5DBase @ 21 NONAME
	_ZN20DUsbClientController19SetDeviceDescriptorEP7DThreadRK5TDes8 @ 22 NONAME
	_ZN20DUsbClientController19SetStringDescriptorEP7DThreadhRK5TDes8 @ 23 NONAME
	_ZN20DUsbClientController20ReleaseDeviceControlEPK5DBase @ 24 NONAME
	_ZN20DUsbClientController21GetEndpointDescriptorEP7DThreadPK5DBaseiiR5TDes8 @ 25 NONAME
	_ZN20DUsbClientController21QueryEndpointResourceEPK5DBasei21TUsbcEndpointResource @ 26 NONAME
	_ZN20DUsbClientController21SetEndpointDescriptorEP7DThreadPK5DBaseiiRK5TDes8 @ 27 NONAME
	_ZN20DUsbClientController21UsbcControllerPointerEi @ 28 NONAME
	_ZN20DUsbClientController22GetInterfaceDescriptorEP7DThreadPK5DBaseiR5TDes8 @ 29 NONAME
	_ZN20DUsbClientController22RegisterClientCallbackER19TUsbcClientCallback @ 30 NONAME
	_ZN20DUsbClientController22RemoveStringDescriptorEh @ 31 NONAME
	_ZN20DUsbClientController22SetInterfaceDescriptorEP7DThreadPK5DBaseiRK5TDes8 @ 32 NONAME
	_ZN20DUsbClientController23CurrentlyUsingHighSpeedEv @ 33 NONAME
	_ZN20DUsbClientController23GetDeviceDescriptorSizeEP7DThreadR5TDes8 @ 34 NONAME
	_ZN20DUsbClientController23RegisterForStatusChangeER19TUsbcStatusCallback @ 35 NONAME
	_ZN20DUsbClientController24AllocateEndpointResourceEPK5DBasei21TUsbcEndpointResource @ 36 NONAME
	_ZN20DUsbClientController25DeRegisterForStatusChangeEPK5DBase @ 37 NONAME
	_ZN20DUsbClientController25GetEndpointDescriptorSizeEP7DThreadPK5DBaseiiR5TDes8 @ 38 NONAME
	_ZN20DUsbClientController25GetStringDescriptorLangIdEP7DThreadR5TDes8 @ 39 NONAME
	_ZN20DUsbClientController25SetStringDescriptorLangIdEt @ 40 NONAME
	_ZN20DUsbClientController26DeAllocateEndpointResourceEPK5DBasei21TUsbcEndpointResource @ 41 NONAME
	_ZN20DUsbClientController26GetConfigurationDescriptorEP7DThreadR5TDes8 @ 42 NONAME
	_ZN20DUsbClientController26GetInterfaceDescriptorSizeEP7DThreadPK5DBaseiR5TDes8 @ 43 NONAME
	_ZN20DUsbClientController26GetProductStringDescriptorEP7DThreadR5TDes8 @ 44 NONAME
	_ZN20DUsbClientController26SetConfigurationDescriptorEP7DThreadRK5TDes8 @ 45 NONAME
	_ZN20DUsbClientController26SetProductStringDescriptorEP7DThreadRK5TDes8 @ 46 NONAME
	_ZN20DUsbClientController27RegisterForOtgFeatureChangeER23TUsbcOtgFeatureCallback @ 47 NONAME
	_ZN20DUsbClientController28GetCSEndpointDescriptorBlockEP7DThreadPK5DBaseiiR5TDes8 @ 48 NONAME
	_ZN20DUsbClientController28GetDeviceQualifierDescriptorEP7DThreadR5TDes8 @ 49 NONAME
	_ZN20DUsbClientController28SetCSEndpointDescriptorBlockEP7DThreadPK5DBaseiiRK5TDes8i @ 50 NONAME
	_ZN20DUsbClientController28SetDeviceQualifierDescriptorEP7DThreadRK5TDes8 @ 51 NONAME
	_ZN20DUsbClientController28SetEndpointZeroMaxPacketSizeEi @ 52 NONAME
	_ZN20DUsbClientController29DeRegisterForOtgFeatureChangeEPK5DBase @ 53 NONAME
	_ZN20DUsbClientController29GetCSInterfaceDescriptorBlockEP7DThreadPK5DBaseiR5TDes8 @ 54 NONAME
	_ZN20DUsbClientController29RemoveProductStringDescriptorEv @ 55 NONAME
	_ZN20DUsbClientController29SetCSInterfaceDescriptorBlockEP7DThreadPK5DBaseiRK5TDes8i @ 56 NONAME
	_ZN20DUsbClientController30GetConfigurationDescriptorSizeEP7DThreadR5TDes8 @ 57 NONAME
	_ZN20DUsbClientController31GetManufacturerStringDescriptorEP7DThreadR5TDes8 @ 58 NONAME
	_ZN20DUsbClientController31GetSerialNumberStringDescriptorEP7DThreadR5TDes8 @ 59 NONAME
	_ZN20DUsbClientController31RegisterForEndpointStatusChangeER27TUsbcEndpointStatusCallback @ 60 NONAME
	_ZN20DUsbClientController31SetManufacturerStringDescriptorEP7DThreadRK5TDes8 @ 61 NONAME
	_ZN20DUsbClientController31SetSerialNumberStringDescriptorEP7DThreadRK5TDes8 @ 62 NONAME
	_ZN20DUsbClientController32GetCSEndpointDescriptorBlockSizeEP7DThreadPK5DBaseiiR5TDes8 @ 63 NONAME
	_ZN20DUsbClientController32GetConfigurationStringDescriptorEP7DThreadR5TDes8 @ 64 NONAME
	_ZN20DUsbClientController32SetConfigurationStringDescriptorEP7DThreadRK5TDes8 @ 65 NONAME
	_ZN20DUsbClientController33DeRegisterForEndpointStatusChangeEPK5DBase @ 66 NONAME
	_ZN20DUsbClientController33GetCSInterfaceDescriptorBlockSizeEP7DThreadPK5DBaseiR5TDes8 @ 67 NONAME
	_ZN20DUsbClientController34RemoveManufacturerStringDescriptorEv @ 68 NONAME
	_ZN20DUsbClientController34RemoveSerialNumberStringDescriptorEv @ 69 NONAME
	_ZN20DUsbClientController35RemoveConfigurationStringDescriptorEv @ 70 NONAME
	_ZN20DUsbClientController36GetOtherSpeedConfigurationDescriptorEP7DThreadR5TDes8 @ 71 NONAME
	_ZN20DUsbClientController36SetOtherSpeedConfigurationDescriptorEP7DThreadRK5TDes8 @ 72 NONAME
	_ZN20DUsbClientController8Ep0StallEPK5DBase @ 73 NONAME
	_ZN20DUsbClientController8IsActiveEv @ 74 NONAME
	_ZNK20DUsbClientController10DeviceCapsEPK5DBaseR5TDes8 @ 75 NONAME
	_ZNK20DUsbClientController12EndpointCapsEPK5DBaseR5TDes8 @ 76 NONAME
	_ZNK20DUsbClientController13Ep0PacketSizeEv @ 77 NONAME
	_ZNK20DUsbClientController14GetOtgFeaturesEP7DThreadR5TDes8 @ 78 NONAME
	_ZNK20DUsbClientController15GetDeviceStatusEv @ 79 NONAME
	_ZNK20DUsbClientController16GetOtgDescriptorEP7DThreadR5TDes8 @ 80 NONAME
	_ZNK20DUsbClientController17GetEndpointStatusEPK5DBasei @ 81 NONAME
	_ZNK20DUsbClientController18GetInterfaceNumberEPK5DBaseRi @ 82 NONAME
	_ZNK20DUsbClientController21GetCurrentOtgFeaturesERh @ 83 NONAME
	_ZNK20DUsbClientController26EndpointZeroMaxPacketSizesEv @ 84 NONAME
	_ZN20DUsbClientController12SetInterfaceEPK5DBaseP7DThreadiR14TUsbcClassInfoP6TDesC8i22TUsbcEndpointInfoArrayPim @ 85 NONAME
