EXPORTS
	_ZN19UsbDescriptorParser21RegisterCustomParserLEPFP21TUsbGenericDescriptorR6TPtrC8S1_E @ 1 NONAME
	_ZN19UsbDescriptorParser22UnregisterCustomParserEPFP21TUsbGenericDescriptorR6TPtrC8S1_E @ 2 NONAME
	_ZN19UsbDescriptorParser5ParseERK6TDesC8RP21TUsbGenericDescriptor @ 3 NONAME
	_ZN20TUsbDeviceDescriptor4CastEP21TUsbGenericDescriptor @ 4 NONAME
	_ZN20TUsbDeviceDescriptorC1Ev @ 5 NONAME
	_ZN20TUsbDeviceDescriptorC2Ev @ 6 NONAME
	_ZN20TUsbStringDescriptor4CastEP21TUsbGenericDescriptor @ 7 NONAME
	_ZN20TUsbStringDescriptorC1Ev @ 8 NONAME
	_ZN20TUsbStringDescriptorC2Ev @ 9 NONAME
	_ZN21TUsbGenericDescriptor11DestroyTreeEv @ 10 NONAME
	_ZN21TUsbGenericDescriptor7CleanupEPv @ 11 NONAME
	_ZNK21TUsbGenericDescriptor8TUint8AtEi @ 12 NONAME
	_ZNK21TUsbGenericDescriptor9TUint16AtEi @ 13 NONAME
	_ZNK21TUsbGenericDescriptor9TUint32AtEi @ 14 NONAME
	_ZN21TUsbGenericDescriptoraSERKS_ @ 15 NONAME
	_ZN22TUsbEndpointDescriptor4CastEP21TUsbGenericDescriptor @ 16 NONAME
	_ZN22TUsbEndpointDescriptorC1Ev @ 17 NONAME
	_ZN22TUsbEndpointDescriptorC2Ev @ 18 NONAME
	_ZN23TUsbInterfaceDescriptor4CastEP21TUsbGenericDescriptor @ 19 NONAME
	_ZN23TUsbInterfaceDescriptorC1Ev @ 20 NONAME
	_ZN23TUsbInterfaceDescriptorC2Ev @ 21 NONAME
	_ZN24TUsbOtherSpeedDescriptor4CastEP21TUsbGenericDescriptor @ 22 NONAME
	_ZN24TUsbOtherSpeedDescriptorC1Ev @ 23 NONAME
	_ZN24TUsbOtherSpeedDescriptorC2Ev @ 24 NONAME
	_ZN27TUsbConfigurationDescriptor4CastEP21TUsbGenericDescriptor @ 25 NONAME
	_ZN27TUsbConfigurationDescriptorC1Ev @ 26 NONAME
	_ZN27TUsbConfigurationDescriptorC2Ev @ 27 NONAME
	_ZN29TUsbDeviceQualifierDescriptor4CastEP21TUsbGenericDescriptor @ 28 NONAME
	_ZN29TUsbDeviceQualifierDescriptorC1Ev @ 29 NONAME
	_ZN29TUsbDeviceQualifierDescriptorC2Ev @ 30 NONAME
	_ZN34TUsbInterfaceAssociationDescriptor4CastEP21TUsbGenericDescriptor @ 31 NONAME
	_ZN34TUsbInterfaceAssociationDescriptorC1Ev @ 32 NONAME
	_ZN34TUsbInterfaceAssociationDescriptorC2Ev @ 33 NONAME
	_ZNK20TUsbDeviceDescriptor11DeviceClassEv @ 34 NONAME
	_ZNK20TUsbDeviceDescriptor12ProductIndexEv @ 35 NONAME
	_ZNK20TUsbDeviceDescriptor14DeviceProtocolEv @ 36 NONAME
	_ZNK20TUsbDeviceDescriptor14DeviceSubClassEv @ 37 NONAME
	_ZNK20TUsbDeviceDescriptor14MaxPacketSize0Ev @ 38 NONAME
	_ZNK20TUsbDeviceDescriptor17ManufacturerIndexEv @ 39 NONAME
	_ZNK20TUsbDeviceDescriptor17NumConfigurationsEv @ 40 NONAME
	_ZNK20TUsbDeviceDescriptor17SerialNumberIndexEv @ 41 NONAME
	_ZNK20TUsbDeviceDescriptor6USBBcdEv @ 42 NONAME
	_ZNK20TUsbDeviceDescriptor8VendorIdEv @ 43 NONAME
	_ZNK20TUsbDeviceDescriptor9DeviceBcdEv @ 44 NONAME
	_ZNK20TUsbDeviceDescriptor9ProductIdEv @ 45 NONAME
	_ZNK20TUsbStringDescriptor10StringDataER6TDes16 @ 46 NONAME
	_ZNK20TUsbStringDescriptor9GetLangIdEi @ 47 NONAME
	_ZNK22TUsbEndpointDescriptor10AttributesEv @ 48 NONAME
	_ZNK22TUsbEndpointDescriptor13MaxPacketSizeEv @ 49 NONAME
	_ZNK22TUsbEndpointDescriptor15EndpointAddressEv @ 50 NONAME
	_ZNK22TUsbEndpointDescriptor8IntervalEv @ 51 NONAME
	_ZNK23TUsbInterfaceDescriptor12NumEndpointsEv @ 52 NONAME
	_ZNK23TUsbInterfaceDescriptor14InterfaceClassEv @ 53 NONAME
	_ZNK23TUsbInterfaceDescriptor15InterfaceNumberEv @ 54 NONAME
	_ZNK23TUsbInterfaceDescriptor16AlternateSettingEv @ 55 NONAME
	_ZNK23TUsbInterfaceDescriptor17InterfaceProtocolEv @ 56 NONAME
	_ZNK23TUsbInterfaceDescriptor17InterfaceSubClassEv @ 57 NONAME
	_ZNK23TUsbInterfaceDescriptor9InterfaceEv @ 58 NONAME
	_ZNK24TUsbOtherSpeedDescriptor10AttributesEv @ 59 NONAME
	_ZNK24TUsbOtherSpeedDescriptor11TotalLengthEv @ 60 NONAME
	_ZNK24TUsbOtherSpeedDescriptor13NumInterfacesEv @ 61 NONAME
	_ZNK24TUsbOtherSpeedDescriptor18ConfigurationIndexEv @ 62 NONAME
	_ZNK24TUsbOtherSpeedDescriptor18ConfigurationValueEv @ 63 NONAME
	_ZNK24TUsbOtherSpeedDescriptor8MaxPowerEv @ 64 NONAME
	_ZNK27TUsbConfigurationDescriptor10AttributesEv @ 65 NONAME
	_ZNK27TUsbConfigurationDescriptor11TotalLengthEv @ 66 NONAME
	_ZNK27TUsbConfigurationDescriptor13NumInterfacesEv @ 67 NONAME
	_ZNK27TUsbConfigurationDescriptor18ConfigurationIndexEv @ 68 NONAME
	_ZNK27TUsbConfigurationDescriptor18ConfigurationValueEv @ 69 NONAME
	_ZNK27TUsbConfigurationDescriptor8MaxPowerEv @ 70 NONAME
	_ZNK29TUsbDeviceQualifierDescriptor11DeviceClassEv @ 71 NONAME
	_ZNK29TUsbDeviceQualifierDescriptor14DeviceProtocolEv @ 72 NONAME
	_ZNK29TUsbDeviceQualifierDescriptor14DeviceSubClassEv @ 73 NONAME
	_ZNK29TUsbDeviceQualifierDescriptor14MaxPacketSize0Ev @ 74 NONAME
	_ZNK29TUsbDeviceQualifierDescriptor17NumConfigurationsEv @ 75 NONAME
	_ZNK29TUsbDeviceQualifierDescriptor6USBBcdEv @ 76 NONAME
	_ZNK29TUsbDeviceQualifierDescriptor8ReservedEv @ 77 NONAME
	_ZNK34TUsbInterfaceAssociationDescriptor13FunctionClassEv @ 78 NONAME
	_ZNK34TUsbInterfaceAssociationDescriptor13FunctionIndexEv @ 79 NONAME
	_ZNK34TUsbInterfaceAssociationDescriptor14FirstInterfaceEv @ 80 NONAME
	_ZNK34TUsbInterfaceAssociationDescriptor14InterfaceCountEv @ 81 NONAME
	_ZNK34TUsbInterfaceAssociationDescriptor16FunctionProtocolEv @ 82 NONAME
	_ZNK34TUsbInterfaceAssociationDescriptor16FunctionSubClassEv @ 83 NONAME
	_ZTI21TUsbGenericDescriptor @ 84 NONAME
	_ZTV21TUsbGenericDescriptor @ 85 NONAME
	_ZN21TUsbGenericDescriptorC1Ev @ 86 NONAME
	_ZN21TUsbGenericDescriptorC2Ev @ 87 NONAME
	_ZN17TUsbOTGDescriptor4CastEP21TUsbGenericDescriptor @ 88 NONAME
	_ZN17TUsbOTGDescriptorC1Ev @ 89 NONAME
	_ZN17TUsbOTGDescriptorC2Ev @ 90 NONAME
	_ZNK17TUsbOTGDescriptor10AttributesEv @ 91 NONAME
	_ZNK17TUsbOTGDescriptor12HNPSupportedEv @ 92 NONAME
	_ZNK17TUsbOTGDescriptor12SRPSupportedEv @ 93 NONAME
        _ZNK17TUsbOTGDescriptor6BcdOTGEv @ 94 NONAME
