EXPORTS
	_ZN10DUsbDevice12ResumeDeviceEv @ 1 NONAME
	_ZN10DUsbDevice13SuspendDeviceEv @ 2 NONAME
	_ZN10DUsbDevice14ChannelClosingEv @ 3 NONAME
	_ZN10DUsbDevice14ChannelOpeningEv @ 4 NONAME
	_ZN10DUsbDevice19GetConfigDescriptorER5TPtr8 @ 5 NONAME
	_ZN10DUsbDevice19GetDeviceDescriptorER5TPtr8 @ 6 NONAME
	_ZN10DUsbDevice19GetStringDescriptorEiiP23usb_string_descriptor_tPm @ 7 NONAME
	_ZN10DUsbDevice23GetConfigDescriptorSizeERi @ 8 NONAME
	_ZN10DUsbDevice34QueueDeviceStateChangeNotificationEP14TRequestStatusRN10RUsbDevice12TDeviceStateE @ 9 NONAME
	_ZN10DUsbDevice35CancelDeviceStateChangeNotificationEv @ 10 NONAME
	_ZN10DUsbDevice42HandleRequestDeviceStateChangeNotificationEP7DThread @ 11 NONAME
	_ZN12DUsbPageList6CreateEP6DChunkiiRPS_R13DUsbInterface @ 12 NONAME
	_ZN12RootHubPower12SetIdPinTypeENS_10TIdPinTypeE @ 13 NONAME
	_ZN12RootHubPower17RootHubPowerCheckEim @ 14 NONAME
	_ZN13DUsbHubDriver17GetInterfaceTokenEP10DUsbDeviceiPm @ 15 NONAME
	_ZN13DUsbHubDriver19GetDeviceFromHandleEm @ 16 NONAME
	_ZN13DUsbHubDriver21GetInterfaceFromTokenER13DUsbdiChannelRP13DUsbInterfacem @ 17 NONAME
	_ZN13DUsbHubDriver26CancelBusEventNotificationEv @ 18 NONAME
	_ZN13DUsbHubDriver27RequestBusEventNotificationEP14TRequestStatusPv @ 19 NONAME
	_ZN13DUsbHubDriver33HandleRequestBusEventNotificationEv @ 20 NONAME
	_ZN13DUsbHubDriver4OpenEP7DThreadRPS_ @ 21 NONAME
	_ZN13DUsbHubDriver4StopEv @ 22 NONAME
	_ZN13DUsbHubDriver5CloseEv @ 23 NONAME
	_ZN13DUsbHubDriver5StartEv @ 24 NONAME
	_ZN13DUsbHubDriver8DfcQueueEv @ 25 NONAME
	_ZN13DUsbInterface10CreatePipeERP8DUsbPipei @ 26 NONAME
	_ZN13DUsbInterface11Ep0TransferERN13RUsbInterface26TUsbTransferRequestDetailsE @ 27 NONAME
	_ZN13DUsbInterface11HcdPageSizeEv @ 28 NONAME
	_ZN13DUsbInterface12Ep0XferSetupERN13RUsbInterface26TUsbTransferRequestDetailsEP14TRequestStatusii @ 29 NONAME
	_ZN13DUsbInterface14ChannelClosingEv @ 30 NONAME
	_ZN13DUsbInterface14GetDeviceSpeedEPN13RUsbInterface12TDeviceSpeedE @ 31 NONAME
	_ZN13DUsbInterface16AbortEP0TransferEv @ 32 NONAME
	_ZN13DUsbInterface18FindPipeFromHandleEm @ 33 NONAME
	_ZN13DUsbInterface18PermitRemoteWakeupEi @ 34 NONAME
	_ZN13DUsbInterface19CancelPermitSuspendEv @ 35 NONAME
	_ZN13DUsbInterface19CancelWaitForResumeEv @ 36 NONAME
	_ZN13DUsbInterface19GetSizeAndAlignmentEiRjRiS1_ @ 37 NONAME
	_ZN13DUsbInterface19GetStringDescriptorEhtR23usb_string_descriptor_tRm @ 38 NONAME
	_ZN13DUsbInterface22GetInterfaceDescriptorER5TDes8 @ 39 NONAME
	_ZN13DUsbInterface24SelectAlternateInterfaceEi @ 40 NONAME
	_ZN13DUsbInterface26GetInterfaceDescriptorSizeEv @ 41 NONAME
	_ZN13DUsbInterface6GetBusEv @ 42 NONAME
	_ZN13DUsbInterface6ResumeEv @ 43 NONAME
	_ZN13DUsbInterface7SuspendEP14TRequestStatus @ 44 NONAME
	_ZN13DUsbInterface8GetBusIdERm @ 45 NONAME
	_ZN13DUsbOtgDriver10BusRequestEv @ 46 NONAME
	_ZN13DUsbOtgDriver10StopStacksEv @ 47 NONAME
	_ZN13DUsbOtgDriver11StartStacksEv @ 48 NONAME
	_ZN13DUsbOtgDriver13BusClearErrorEv @ 49 NONAME
	_ZN13DUsbOtgDriver13BusRespondSrpEv @ 50 NONAME
	_ZN13DUsbOtgDriver19ActivateOptTestModeEv @ 51 NONAME
	_ZN13DUsbOtgDriver20QueueOtgEventRequestEPN13RUsbOtgDriver9TOtgEventEP14TRequestStatus @ 52 NONAME
	_ZN13DUsbOtgDriver20QueueOtgStateRequestEPN13RUsbOtgDriver9TOtgStateEP14TRequestStatus @ 53 NONAME
	_ZN13DUsbOtgDriver21CancelOtgEventRequestEv @ 54 NONAME
	_ZN13DUsbOtgDriver21CancelOtgStateRequestEv @ 55 NONAME
	_ZN13DUsbOtgDriver21HandleOtgEventRequestEv @ 56 NONAME
	_ZN13DUsbOtgDriver21HandleOtgStateRequestEv @ 57 NONAME
	_ZN13DUsbOtgDriver22QueueOtgMessageRequestEPN13RUsbOtgDriver11TOtgMessageEP14TRequestStatus @ 58 NONAME
	_ZN13DUsbOtgDriver23CancelOtgMessageRequestEv @ 59 NONAME
	_ZN13DUsbOtgDriver23HandleOtgMessageRequestEv @ 60 NONAME
	_ZN13DUsbOtgDriver24QueueOtgVbusNotificationERN13RUsbOtgDriver8TOtgVbusEP14TRequestStatus @ 61 NONAME
	_ZN13DUsbOtgDriver25CancelOtgVbusNotificationEv @ 62 NONAME
	_ZN13DUsbOtgDriver25QueueOtgIdPinNotificationERN13RUsbOtgDriver9TOtgIdPinEP14TRequestStatus @ 63 NONAME
	_ZN13DUsbOtgDriver25QueueOtgStateNotificationERN13RUsbOtgDriver9TOtgStateEP14TRequestStatus @ 64 NONAME
	_ZN13DUsbOtgDriver26CancelOtgIdPinNotificationEv @ 65 NONAME
	_ZN13DUsbOtgDriver26CancelOtgStateNotificationEv @ 66 NONAME
	_ZN13DUsbOtgDriver30QueueOtgConnectionNotificationERN13RUsbOtgDriver14TOtgConnectionEP14TRequestStatus @ 67 NONAME
	_ZN13DUsbOtgDriver31CancelOtgConnectionNotificationEv @ 68 NONAME
	_ZN13DUsbOtgDriver4OpenEP7DThread @ 69 NONAME
	_ZN13DUsbOtgDriver5CloseEv @ 70 NONAME
	_ZN13DUsbOtgDriver7BusDropEv @ 71 NONAME
	_ZN13DUsbOtgDriver8DfcQueueEv @ 72 NONAME
	_ZN14StackInterlock13LockHostStackEv @ 73 NONAME
	_ZN14StackInterlock16ReleaseHostStackEv @ 74 NONAME
	_ZN17UsbTransferMemory11ChunkCreateERP6DChunkPvjjR16TChunkCreateInfoRm @ 75 NONAME
	_ZN8DUsbPipe10ClearStallEv @ 76 NONAME
	_ZN8DUsbPipe13GetEndpointIdERy @ 77 NONAME
	KUsbHostMaxHubDepth @ 78 NONAME DATA 1
	KUsbHostMaxSupportedPeripherals @ 79 NONAME DATA 1

