EXPORTS
	NKFault @ 1 NONAME
	_Z10KDebugMaskv @ 2 NONAME
	_Z9KDebugNumi @ 3 NONAME
	_ZN10DObjectCon10FindByNameER11TFindHandleRK6TDesC8R4TBufILi80EE @ 4 NONAME
	_ZN10DObjectCon14FindByFullNameER11TFindHandleRK6TDesC8R4TBufILi256EE @ 5 NONAME
	_ZN10DObjectCon14OpenByFullNameERP7DObjectRK6TDesC8 @ 6 NONAME
	_ZN10DObjectCon19CheckUniqueFullNameEP7DObject @ 7 NONAME
	_ZN10DObjectCon19CheckUniqueFullNameEP7DObjectRK6TDesC8 @ 8 NONAME
	_ZN10DObjectCon2AtERK11TFindHandle @ 9 NONAME
	_ZN10DObjectCon3AddEP7DObject @ 10 NONAME
	_ZN10DObjectCon6RemoveEP7DObject @ 11 NONAME
	_ZN10DObjectConixEi @ 12 NONAME
	_ZN10NFastMutex4WaitEv @ 13 NONAME
	_ZN10NFastMutex6SignalEv @ 14 NONAME
	_ZN10RArrayBase15InsertIsqSignedEPKvi @ 15 NONAME
	_ZN10RArrayBase17InsertIsqUnsignedEPKvi @ 16 NONAME
	_ZN10RArrayBase5CloseEv @ 17 NONAME
	_ZN10RArrayBase5ResetEv @ 18 NONAME
	_ZN10RArrayBase6AppendEPKv @ 19 NONAME
	_ZN10RArrayBase6InsertEPKvi @ 20 NONAME
	_ZN10RArrayBase6RemoveEi @ 21 NONAME
	_ZN10RArrayBase8CompressEv @ 22 NONAME
	_ZN10RArrayBase9InsertIsqEPKvPFiS1_S1_Ei @ 23 NONAME
	_ZN10RArrayBaseC1Ei @ 24 NONAME
	_ZN10RArrayBaseC1Eii @ 25 NONAME
	_ZN10RArrayBaseC1Eiii @ 26 NONAME
	_ZN10RArrayBaseC1Eiiii @ 27 NONAME
	_ZN10RArrayBaseC2Ei @ 28 NONAME
	_ZN10RArrayBaseC2Eii @ 29 NONAME
	_ZN10RArrayBaseC2Eiii @ 30 NONAME
	_ZN10RArrayBaseC2Eiiii @ 31 NONAME
	_ZN10TBufCBase84CopyEPKhi @ 32 NONAME
	_ZN10TBufCBase84CopyERK6TDesC8i @ 33 NONAME
	_ZN10TBufCBase8C1EPKhi @ 34 NONAME
	_ZN10TBufCBase8C1ERK6TDesC8i @ 35 NONAME
	_ZN10TBufCBase8C1Ev @ 36 NONAME
	_ZN10TBufCBase8C2EPKhi @ 37 NONAME
	_ZN10TBufCBase8C2ERK6TDesC8i @ 38 NONAME
	_ZN10TBufCBase8C2Ev @ 39 NONAME
	_ZN10TScheduler3PtrEv @ 40 NONAME
	_ZN11NThreadBase11ForceResumeEv @ 41 NONAME
	_ZN11NThreadBase11SetPriorityEi @ 42 NONAME
	_ZN11NThreadBase13RequestSignalEv @ 43 NONAME
	_ZN11NThreadBase4KillEv @ 44 NONAME
	_ZN11NThreadBase6ResumeEv @ 45 NONAME
	_ZN11NThreadBase7SuspendEi @ 46 NONAME
	_ZN11TMessageQue11CompleteAllEi @ 47 NONAME
	_ZN11TMessageQue4LastEv @ 48 NONAME
	_ZN11TMessageQue4PollEv @ 49 NONAME
	_ZN11TMessageQue7ReceiveEv @ 50 NONAME
	_ZN11TMessageQueC1EPFvPvES0_P7TDfcQuei @ 51 NONAME
	_ZN11TMessageQueC2EPFvPvES0_P7TDfcQuei @ 52 NONAME
	_ZN11TSecondLink2AtERKxPFvPvES2_ @ 53 NONAME
	_ZN11TSecondLink6CancelEv @ 54 NONAME
	_ZN11TSecondLinkC1Ev @ 55 NONAME
	_ZN11TSecondLinkC2Ev @ 56 NONAME
	_ZN12DPlatChunkHw3NewERPS_mij @ 57 NONAME
	_ZN12RPropertyRef3GetER5TDes8P8DProcess @ 58 NONAME
	_ZN12RPropertyRef3GetERiP8DProcess @ 59 NONAME
	_ZN12RPropertyRef3SetERK6TDesC8P8DProcess @ 60 NONAME
	_ZN12RPropertyRef3SetEiP8DProcess @ 61 NONAME
	_ZN12RPropertyRef4OpenE4TUidi @ 62 NONAME
	_ZN12RPropertyRef5CloseEv @ 63 NONAME
	_ZN12RPropertyRef6AttachE4TUidi @ 64 NONAME
	_ZN12RPropertyRef6CancelER20TPropertySubsRequest @ 65 NONAME
	_ZN12RPropertyRef6DefineEiRK15TSecurityPolicyS2_iP8DProcess @ 66 NONAME
	_ZN12RPropertyRef6DeleteEP8DProcess @ 67 NONAME
	_ZN12RPropertyRef9GetStatusER15TPropertyStatus @ 68 NONAME
	_ZN12RPropertyRef9SubscribeER20TPropertySubsRequestP8DProcess @ 69 NONAME
	_ZN12TMessageBase11PanicClientERK6TDesC8i @ 70 NONAME
	_ZN12TMessageBase11SendReceiveEP11TMessageQue @ 71 NONAME
	_ZN12TMessageBase4SendEP11TMessageQue @ 72 NONAME
	_ZN12TMessageBase6CancelEv @ 73 NONAME
	_ZN12TMessageBase6ClientEv @ 74 NONAME
	_ZN12TMessageBase7ForwardEP11TMessageQuei @ 75 NONAME
	_ZN12TMessageBase8CompleteEii @ 76 NONAME
	_ZN12TPriListBase14ChangePriorityEP12TPriListLinki @ 77 NONAME
	_ZN12TPriListBase15HighestPriorityEv @ 78 NONAME
	_ZN12TPriListBase3AddEP12TPriListLink @ 79 NONAME
	_ZN12TPriListBase5FirstEv @ 80 NONAME
	_ZN12TPriListBase6RemoveEP12TPriListLink @ 81 NONAME
	_ZN12TPriListBaseC1Ei @ 82 NONAME
	_ZN12TPriListBaseC2Ei @ 83 NONAME
	_ZN13DPowerHandler11PowerUpDoneEv @ 84 NONAME
	_ZN13DPowerHandler13PowerDownDoneEv @ 85 NONAME
	_ZN13DPowerHandler21SetCurrentConsumptionEi @ 86 NONAME
	_ZN13DPowerHandler23DeltaCurrentConsumptionEi @ 87 NONAME
	_ZN13DPowerHandler3AddEv @ 88 NONAME
	_ZN13DPowerHandler6RemoveEv @ 89 NONAME
	_ZN13DPowerHandlerC2ERK6TDesC8 @ 90 NONAME
	_ZN13DPowerHandlerD0Ev @ 91 NONAME
	_ZN13DPowerHandlerD1Ev @ 92 NONAME
	_ZN13DPowerHandlerD2Ev @ 93 NONAME
	_ZN14DLogicalDeviceD0Ev @ 94 NONAME
	_ZN14DLogicalDeviceD1Ev @ 95 NONAME
	_ZN14DLogicalDeviceD2Ev @ 96 NONAME
	_ZN14NFastSemaphore4WaitEv @ 97 NONAME
	_ZN14NFastSemaphore5ResetEv @ 98 NONAME
	_ZN14NFastSemaphore6SignalEv @ 99 NONAME
	_ZN14NFastSemaphore7SignalNEi @ 100 NONAME
	_ZN14NFastSemaphore8SetOwnerEP11NThreadBase @ 101 NONAME
	_ZN14TCapabilitySet12IntersectionERKS_ @ 102 NONAME
	_ZN14TCapabilitySet13AddCapabilityE11TCapability @ 103 NONAME
	_ZN14TCapabilitySet15SetAllSupportedEv @ 104 NONAME
	_ZN14TCapabilitySet16RemoveCapabilityE11TCapability @ 105 NONAME
	_ZN14TCapabilitySet5UnionERKS_ @ 106 NONAME
	_ZN14TCapabilitySet6RemoveERKS_ @ 107 NONAME
	_ZN14TCapabilitySet8SetEmptyEv @ 108 NONAME
	_ZN14TCapabilitySetC1E11TCapabilityS0_ @ 109 NONAME
	_ZN14TCapabilitySetC2E11TCapabilityS0_ @ 110 NONAME
	_ZN14TThreadCleanup6RemoveEv @ 111 NONAME
	_ZN14TThreadCleanupC2Ev @ 112 NONAME
	_ZN15DBatteryMonitor8RegisterEv @ 113 NONAME
	_ZN15DBatteryMonitorC2Ev @ 114 NONAME
	_ZN15DLogicalChannel5CloseEPv @ 115 NONAME
	_ZN15DLogicalChannel7RequestEiPvS0_ @ 116 NONAME
	_ZN15DLogicalChannel7SetDfcQEP7TDfcQue @ 117 NONAME
	_ZN15DLogicalChannelC2Ev @ 118 NONAME
	_ZN15DLogicalChannelD0Ev @ 119 NONAME
	_ZN15DLogicalChannelD1Ev @ 120 NONAME
	_ZN15DLogicalChannelD2Ev @ 121 NONAME
	_ZN15DPhysicalDevice4InfoEiPv @ 122 NONAME
	_ZN15DPhysicalDeviceD0Ev @ 123 NONAME
	_ZN15DPhysicalDeviceD1Ev @ 124 NONAME
	_ZN15DPhysicalDeviceD2Ev @ 125 NONAME
	_ZN15DSharedIoBuffer12KernelToUserEm @ 126 NONAME
	_ZN15DSharedIoBuffer12UserToKernelEmm @ 127 NONAME
	_ZN15DSharedIoBuffer3NewERPS_mj @ 128 NONAME
	_ZN15DSharedIoBuffer3NewERPS_mmj @ 129 NONAME
	_ZN15DSharedIoBuffer7UserMapEP8DProcess @ 130 NONAME
	_ZN15DSharedIoBuffer9UserUnmapEv @ 131 NONAME
	_ZN15DSharedIoBufferD0Ev @ 132 NONAME
	_ZN15DSharedIoBufferD1Ev @ 133 NONAME
	_ZN15DSharedIoBufferD2Ev @ 134 NONAME
	_ZN15TInactivityLink5StartEiPFvPvES0_ @ 135 NONAME
	_ZN15TInactivityLink6CancelEv @ 136 NONAME
	_ZN15TInactivityLinkC1Ev @ 137 NONAME
	_ZN15TInactivityLinkC2Ev @ 138 NONAME
	_ZN15TSecurityPolicy3SetERK6TDesC8 @ 139 NONAME
	_ZN15TSecurityPolicyC1E11TCapabilityS0_S0_ @ 140 NONAME
	_ZN15TSecurityPolicyC1E11TCapabilityS0_S0_S0_S0_S0_S0_ @ 141 NONAME
	_ZN15TSecurityPolicyC1E9TSecureId11TCapabilityS1_S1_ @ 142 NONAME
	_ZN15TSecurityPolicyC1E9TVendorId11TCapabilityS1_S1_ @ 143 NONAME
	_ZN15TSecurityPolicyC1ENS_14TSecPolicyTypeE @ 144 NONAME
	_ZN15TSecurityPolicyC2E11TCapabilityS0_S0_ @ 145 NONAME
	_ZN15TSecurityPolicyC2E11TCapabilityS0_S0_S0_S0_S0_S0_ @ 146 NONAME
	_ZN15TSecurityPolicyC2E9TSecureId11TCapabilityS1_S1_ @ 147 NONAME
	_ZN15TSecurityPolicyC2E9TVendorId11TCapabilityS1_S1_ @ 148 NONAME
	_ZN15TSecurityPolicyC2ENS_14TSecPolicyTypeE @ 149 NONAME
	_ZN16DPowerController11WakeupEventEv @ 150 NONAME
	_ZN16DPowerController8RegisterEv @ 151 NONAME
	_ZN16DPowerControllerC2Ev @ 152 NONAME
	_ZN16TBitMapAllocator13SelectiveFreeEii @ 153 NONAME
	_ZN16TBitMapAllocator16CopyAlignedRangeEPKS_ii @ 154 NONAME
	_ZN16TBitMapAllocator3NewEii @ 155 NONAME
	_ZN16TBitMapAllocator4FreeEi @ 156 NONAME
	_ZN16TBitMapAllocator4FreeEii @ 157 NONAME
	_ZN16TBitMapAllocator5AllocEii @ 158 NONAME
	_ZN16TBitMapAllocator5AllocEv @ 159 NONAME
	_ZN16TBitMapAllocator9AllocListEiPi @ 160 NONAME
	_ZN16TBitMapAllocatorC1Eii @ 161 NONAME
	_ZN16TBitMapAllocatorC2Eii @ 162 NONAME
	_ZN17RPointerArrayBase15InsertIsqSignedEii @ 163 NONAME
	_ZN17RPointerArrayBase17InsertIsqUnsignedEji @ 164 NONAME
	_ZN17RPointerArrayBase5CloseEv @ 165 NONAME
	_ZN17RPointerArrayBase5ResetEv @ 166 NONAME
	_ZN17RPointerArrayBase6AppendEPKv @ 167 NONAME
	_ZN17RPointerArrayBase6InsertEPKvi @ 168 NONAME
	_ZN17RPointerArrayBase6RemoveEi @ 169 NONAME
	_ZN17RPointerArrayBase8CompressEv @ 170 NONAME
	_ZN17RPointerArrayBase9InsertIsqEPKvPFiS1_S1_Ei @ 171 NONAME
	_ZN17RPointerArrayBaseC1Ei @ 172 NONAME
	_ZN17RPointerArrayBaseC1Eii @ 173 NONAME
	_ZN17RPointerArrayBaseC1Ev @ 174 NONAME
	_ZN17RPointerArrayBaseC2Ei @ 175 NONAME
	_ZN17RPointerArrayBaseC2Eii @ 176 NONAME
	_ZN17RPointerArrayBaseC2Ev @ 177 NONAME
	_ZN17TInternalRamDrive4BaseEv @ 178 NONAME
	_ZN17TInternalRamDrive4LockEv @ 179 NONAME
	_ZN17TInternalRamDrive4SizeEv @ 180 NONAME
	_ZN17TInternalRamDrive4WaitEv @ 181 NONAME
	_ZN17TInternalRamDrive6AdjustEi @ 182 NONAME
	_ZN17TInternalRamDrive6SignalEv @ 183 NONAME
	_ZN17TInternalRamDrive6UnlockEv @ 184 NONAME
	_ZN17TInternalRamDrive7MaxSizeEv @ 185 NONAME
	_ZN19DKernelEventHandler19DebugSupportEnabledEv @ 186 NONAME
	_ZN19DKernelEventHandler3AddENS_10TAddPolicyE @ 187 NONAME
	_ZN19DKernelEventHandler5CloseEv @ 188 NONAME
	_ZN19DKernelEventHandlerC1EPFj12TKernelEventPvS1_S1_ES1_ @ 189 NONAME
	_ZN19DKernelEventHandlerC2EPFj12TKernelEventPvS1_S1_ES1_ @ 190 NONAME
	_ZN19DLogicalChannelBase8DoCreateEiPK6TDesC8RK8TVersion @ 191 NONAME
	_ZN19DLogicalChannelBaseD0Ev @ 192 NONAME
	_ZN19DLogicalChannelBaseD1Ev @ 193 NONAME
	_ZN19DLogicalChannelBaseD2Ev @ 194 NONAME
	_ZN20RPhysicalDeviceArray13GetDriverListERK6TDesC8iPS1_RK8TVersion @ 195 NONAME
	_ZN20RPhysicalDeviceArray5CloseEv @ 196 NONAME
	_ZN20RPhysicalDeviceArrayC1Ev @ 197 NONAME
	_ZN20RPhysicalDeviceArrayC2Ev @ 198 NONAME
	_ZN3X8613SetIrqHandlerEm @ 199 NONAME
	_ZN3EMI12AddTaskEventER16TTaskEventRecord @ 200 NONAME
	_ZN3EMI12GetTaskEventER16TTaskEventRecord @ 201 NONAME
	_ZN3EMI12GetThreadTagEP7NThread @ 202 NONAME
	_ZN3EMI12SetThreadTagEP7NThreadm @ 203 NONAME
	_ZN3EMI13GetIdleThreadEv @ 204 NONAME
	_ZN3EMI14GetSigmaThreadEv @ 205 NONAME
	_ZN3EMI14ThreadMonitorsEPFiP7NThreadEPFvS1_E @ 206 NONAME
	_ZN3EMI16GetDfcTriggerTagEv @ 207 NONAME
	_ZN3EMI16TaskEventLoggingEii @ 208 NONAME
	_ZN3EMI16TaskEventLoggingEiiPFiP7NThreadEPFvS1_E @ 209 NONAME
	_ZN3EMI17GetThreadLoggableEP7NThread @ 210 NONAME
	_ZN3EMI17GetThreadVemsDataEP7NThread @ 211 NONAME
	_ZN3EMI17SetThreadLoggableEP7NThreadi @ 212 NONAME
	_ZN3EMI17SetThreadVemsDataEP7NThreadPv @ 213 NONAME
	_ZN3EMI6SetDfcEP4TDfcm @ 214 NONAME
	_ZN3EMI7GetMaskEv @ 215 NONAME
	_ZN3EMI7SetMaskEm @ 216 NONAME
	_ZN3EMI8GetStateEv @ 217 NONAME
	_ZN3EMI8SetStateEm @ 218 NONAME
	_ZN3EMI9AfterIdleEi @ 219 NONAME
	_ZN3EMI9EnterIdleEv @ 220 NONAME
	_ZN3EMI9LeaveIdleEv @ 221 NONAME
	_ZN3Exc5FaultEPv @ 222 NONAME
	_ZN4Arch7TheAsicEv @ 223 NONAME
	_ZN4Epoc13ExceptionInfoEv @ 224 NONAME
	_ZN4Epoc14FreeShadowPageEm @ 225 NONAME
	_ZN4Epoc14RomProcessInfoER18TProcessCreateInfoRK15TRomImageHeader @ 226 NONAME
	_ZN4Epoc15AllocShadowPageEm @ 227 NONAME
	_ZN4Epoc15FreePhysicalRamEmi @ 228 NONAME
	_ZN4Epoc16AllocPhysicalRamEiRmi @ 229 NONAME
	_ZN4Epoc16ClaimPhysicalRamEmi @ 230 NONAME
	_ZN4Epoc16FreezeShadowPageEm @ 231 NONAME
	_ZN4Epoc16LinearToPhysicalEm @ 232 NONAME
	_ZN4Epoc20SetMonitorEntryPointEPFvPvE @ 233 NONAME
	_ZN4Epoc26SetMonitorExceptionHandlerEm @ 234 NONAME
	_ZN4Epoc9RomHeaderEv @ 235 NONAME
	_ZN4Kern10AccessCodeEv @ 236 NONAME
	_ZN4Kern10ChunkCloseEP6DChunk @ 237 NONAME
	_ZN4Kern10ContainersEv @ 238 NONAME
	_ZN4Kern10DfcQCreateERP7TDfcQueiPK6TDesC8 @ 239 NONAME
	_ZN4Kern10KUSafeReadEPKvPvi @ 240 NONAME
	_ZN4Kern10PowerModelEv @ 241 NONAME
	_ZN4Kern10RandomSaltEm @ 242 NONAME
	_ZN4Kern10SystemTimeEv @ 243 NONAME
	_ZN4Kern10ThreadKillEP7DThread9TExitTypeiRK6TDesC8 @ 244 NONAME
	_ZN4Kern10TickPeriodEv @ 245 NONAME
	_ZN4Kern11AddHalEntryEiPFiPviS0_S0_ES0_ @ 246 NONAME
	_ZN4Kern11AddHalEntryEiPFiPviS0_S0_ES0_i @ 247 NONAME
	_ZN4Kern11ChunkCommitEP6DChunkii @ 248 NONAME
	_ZN4Kern11ChunkCreateERK16TChunkCreateInfoRP6DChunkRmS6_ @ 249 NONAME
	_ZN4Kern11CloseHandleEP7DThreadi @ 250 NONAME
	_ZN4Kern11CodeSegListEv @ 251 NONAME
	_ZN4Kern11CodeSegLockEv @ 252 NONAME
	_ZN4Kern11HalFunctionEiiPvS0_ @ 253 NONAME
	_ZN4Kern11HalFunctionEiiPvS0_i @ 254 NONAME
	_ZN4Kern11KUSafeWriteEPvPKvi @ 255 NONAME
	_ZN4Kern11MutexCreateERP6DMutexRK6TDesC8j @ 256 NONAME
	_ZN4Kern11MutexSignalER6DMutex @ 257 NONAME
	_ZN4Kern11PollingWaitEPFiPvES0_ii @ 258 NONAME
	_ZN4Kern11SafeReAllocERPvii @ 259 NONAME
	_ZN4Kern12AppendFormatER5TDes8PKcPc @ 260 NONAME ; char* form is _ZN4Kern12AppendFormatER5TDes8PKcPPc @263 NONAME
	_ZN4Kern12ChunkAddressEP6DChunkiiRm @ 261 NONAME
	_ZN4Kern12FindHalEntryEi @ 262 NONAME
	_ZN4Kern12FindHalEntryEii @ 263 NONAME
	_ZN4Kern12ThreadCreateER17SThreadCreateInfo @ 264 NONAME
	_ZN4Kern12ThreadFromIdEj @ 265 NONAME
	_ZN4Kern12ThreadResumeER7DThread @ 266 NONAME
	_ZN4Kern12ValidateNameERK6TDesC8 @ 267 NONAME
	_ZN4Kern13CurrentThreadEv @ 268 NONAME
	_ZN4Kern13EndAccessCodeEv @ 269 NONAME
	_ZN4Kern13MachineConfigEv @ 270 NONAME
	_ZN4Kern13NotifyChangesEj @ 271 NONAME
	_ZN4Kern13ProcessCreateERP8DProcessR18TProcessCreateInfoRP5HBuf8Pi @ 272 NONAME
	_ZN4Kern13ProcessFromIdEj @ 273 NONAME
	_ZN4Kern13SemaphoreWaitER10DSemaphorei @ 274 NONAME
	_ZN4Kern13SetSystemTimeERKxj @ 275 NONAME
	_ZN4Kern13ThreadDesReadEP7DThreadPKvR5TDes8ii @ 276 NONAME
	_ZN4Kern13ThreadRawReadEP7DThreadPKvPvi @ 277 NONAME
	_ZN4Kern13ThreadSuspendER7DThreadi @ 278 NONAME
	_ZN4Kern14CurrentProcessEv @ 279 NONAME
	_ZN4Kern14FreeRamInBytesEv @ 280 NONAME
	_ZN4Kern14KUDesSetLengthER5TDes8i @ 281 NONAME
	_ZN4Kern14RemoveHalEntryEi @ 282 NONAME
	_ZN4Kern14RemoveHalEntryEii @ 283 NONAME
	_ZN4Kern14ThreadDesWriteEP7DThreadPvRK6TDesC8iiS1_ @ 284 NONAME
	_ZN4Kern14ThreadRawWriteEP7DThreadPvPKviS1_ @ 285 NONAME
	_ZN4Kern14WaitForRequestER14TRequestStatus @ 286 NONAME
	_ZN4Kern15OpenSharedChunkEP7DThreadPKviRi @ 287 NONAME
	_ZN4Kern15OpenSharedChunkEP7DThreadii @ 288 NONAME
	_ZN4Kern15RequestCompleteEP7DThreadRP14TRequestStatusi @ 289 NONAME
	_ZN4Kern15RoundToPageSizeEm @ 290 NONAME
	_ZN4Kern15SemaphoreCreateERP10DSemaphoreRK6TDesC8i @ 291 NONAME
	_ZN4Kern15SemaphoreSignalER10DSemaphore @ 292 NONAME
	_ZN4Kern15SetTraceHandlerEPFiRK6TDesC812TTraceSourceE @ 293 NONAME
	_ZN4Kern16NThreadToDThreadEP7NThread @ 294 NONAME
	_ZN4Kern16ObjectFromHandleEP7DThreadii @ 295 NONAME
	_ZN4Kern16RoundToChunkSizeEm @ 296 NONAME
	_ZN4Kern16ThreadGetDesInfoEP7DThreadPKvRiS4_RPhi @ 297 NONAME
	_ZN4Kern16ValidateFullNameERK6TDesC8 @ 298 NONAME
	_ZN4Kern17MakeHandleAndOpenEP7DThreadP7DObject @ 299 NONAME
	_ZN4Kern17NotifyThreadDeathEP7DThread @ 300 NONAME
	_ZN4Kern17SetThreadPriorityEiP7DThread @ 301 NONAME
	_ZN4Kern18AsyncNotifyChangesEj @ 302 NONAME
	_ZN4Kern18CodeSegFromAddressEmP8DProcess @ 303 NONAME
	_ZN4Kern18MachinePowerStatusEv @ 304 NONAME
	_ZN4Kern18PanicCurrentThreadERK6TDesC8i @ 305 NONAME
	_ZN4Kern18ThreadGetDesLengthEP7DThreadPKv @ 306 NONAME
	_ZN4Kern19ChunkCommitPhysicalEP6DChunkiiPKm @ 307 NONAME
	_ZN4Kern19ChunkCommitPhysicalEP6DChunkiim @ 308 NONAME
	_ZN4Kern20ChunkPhysicalAddressEP6DChunkiiRmS2_S2_Pm @ 309 NONAME
	_ZN4Kern20CodeSegGetMemoryInfoER8DCodeSegR18TProcessMemoryInfoP8DProcess @ 310 NONAME
	_ZN4Kern21ChunkCommitContiguousEP6DChunkiiRm @ 311 NONAME
	_ZN4Kern21QueryVersionSupportedERK8TVersionS2_ @ 312 NONAME
	_ZN4Kern21ThreadGetDesMaxLengthEP7DThreadPKv @ 313 NONAME
	_ZN4Kern28DoCurrentThreadHasCapabilityE11TCapability @ 314 NONAME
	_ZN4Kern28DoCurrentThreadHasCapabilityE11TCapabilityPKc @ 315 NONAME
	_ZN4Kern4ExitEi @ 316 NONAME
	_ZN4Kern4FreeEPv @ 317 NONAME
	_ZN4Kern5AllocEi @ 318 NONAME
	_ZN4Kern5FaultEPKci @ 319 NONAME
	_ZN4Kern6AllocZEi @ 320 NONAME
	_ZN4Kern6PrintfEPKcz @ 321 NONAME
	_ZN4Kern6RandomEv @ 322 NONAME
	_ZN4Kern7DfcQue0Ev @ 323 NONAME
	_ZN4Kern7DfcQue1Ev @ 324 NONAME
	_ZN4Kern7MessageEv @ 325 NONAME
	_ZN4Kern7ReAllocEPvii @ 326 NONAME
	_ZN4Kern7RestartEi @ 327 NONAME
	_ZN4Kern7SetHookE15TKernelHookTypePFivEi @ 328 NONAME
	_ZN4Kern8AddEventERK9TRawEvent @ 329 NONAME
	_ZN4Kern8DfcQInitEP7TDfcQueiPK6TDesC8 @ 330 NONAME
	_ZN4Kern8InfoCopyER5TDes8PKhi @ 331 NONAME
	_ZN4Kern8InfoCopyER5TDes8RK6TDesC8 @ 332 NONAME
	_ZN4Kern8KUDesGetER5TDes8RK6TDesC8 @ 333 NONAME
	_ZN4Kern8KUDesPutER5TDes8RK6TDesC8 @ 334 NONAME
	_ZN4Kern8NanoWaitEm @ 335 NONAME
	_ZN4Kern8SafeReadEPKvPvi @ 336 NONAME
	_ZN4Kern8SvMsgQueEv @ 337 NONAME
	_ZN4Kern9AsyncFreeEPv @ 338 NONAME
	_ZN4Kern9ColdStartEv @ 339 NONAME
	_ZN4Kern9KUDesInfoERK6TDesC8RiS3_ @ 340 NONAME
	_ZN4Kern9KUSafeDecERi @ 341 NONAME
	_ZN4Kern9KUSafeIncERi @ 342 NONAME
	_ZN4Kern9MutexWaitER6DMutex @ 343 NONAME
	_ZN4Kern9PowerGoodEv @ 344 NONAME
	_ZN4Kern9SafeCloseERP7DObjectPv @ 345 NONAME
	_ZN4Kern9SafeWriteEPvPKvi @ 346 NONAME
	_ZN4Kern9SuperPageEv @ 347 NONAME
	_ZN4Kern9TickCountEv @ 348 NONAME
	_ZN4Kern9TimerDfcQEv @ 349 NONAME
	_ZN4TDfc3AddEv @ 350 NONAME
	_ZN4TDfc5EnqueEP10NFastMutex @ 351 NONAME
	_ZN4TDfc5EnqueEv @ 352 NONAME
	_ZN4TDfc6CancelEv @ 353 NONAME
	_ZN4TDfc7DoEnqueEv @ 354 NONAME
	_ZN4TDfcC1EPFvPvES0_ @ 355 NONAME
	_ZN4TDfcC1EPFvPvES0_P7TDfcQuei @ 356 NONAME
	_ZN4TDfcC1EPFvPvES0_i @ 357 NONAME
	_ZN4TDfcC2EPFvPvES0_ @ 358 NONAME
	_ZN4TDfcC2EPFvPvES0_P7TDfcQuei @ 359 NONAME
	_ZN4TDfcC2EPFvPvES0_i @ 360 NONAME
	_ZN5Cache16AtomicSyncMemoryEv @ 361 NONAME
	_ZN5Cache22SyncMemoryAfterDmaReadEmj @ 362 NONAME
	_ZN5Cache23SyncMemoryBeforeDmaReadEmj @ 363 NONAME
	_ZN5Cache23SyncMemoryBeforeDmaReadEmjm @ 364 NONAME
	_ZN5Cache24SyncMemoryBeforeDmaWriteEmj @ 365 NONAME
	_ZN5Cache24SyncMemoryBeforeDmaWriteEmjm @ 366 NONAME
	_ZN5Cache9IMB_RangeEmj @ 367 NONAME
	_ZN5DBase11AsyncDeleteEv @ 368 NONAME
	_ZN5DBase6DeleteEPS_ @ 369 NONAME
	_ZN5DBasenwEj @ 370 NONAME
	_ZN5DBasenwEjj @ 371 NONAME
	_ZN5HBuf83NewERK6TDesC8 @ 372 NONAME
	_ZN5HBuf83NewEi @ 373 NONAME
	_ZN5HBuf87ReAllocEi @ 374 NONAME
	_ZN5NKern10FSSetOwnerEP14NFastSemaphoreP11NThreadBase @ 375 NONAME
	_ZN5NKern10LockSystemEv @ 376 NONAME
	_ZN5NKern10ThreadKillEP7NThread @ 377 NONAME
	_ZN5NKern10ThreadKillEP7NThreadP10NFastMutex @ 378 NONAME
	_ZN5NKern10TickPeriodEv @ 379 NONAME
	_ZN5NKern10TimerTicksEi @ 380 NONAME
	_ZN5NKern11FastCounterEv @ 381 NONAME
	_ZN5NKern11FlashSystemEv @ 382 NONAME
	_ZN5NKern12ThreadCreateEP7NThreadR18SNThreadCreateInfo @ 383 NONAME
	_ZN5NKern12ThreadResumeEP7NThread @ 384 NONAME
	_ZN5NKern12ThreadResumeEP7NThreadP10NFastMutex @ 385 NONAME
	_ZN5NKern12UnlockSystemEv @ 386 NONAME
	_ZN5NKern13CurrentThreadEv @ 387 NONAME
	_ZN5NKern13ThreadEnterCSEv @ 388 NONAME
	_ZN5NKern13ThreadLeaveCSEv @ 389 NONAME
	_ZN5NKern13ThreadReleaseEP7NThreadi @ 390 NONAME
	_ZN5NKern13ThreadReleaseEP7NThreadiP10NFastMutex @ 391 NONAME
	_ZN5NKern13ThreadSuspendEP7NThreadi @ 392 NONAME
	_ZN5NKern14CurrentContextEv @ 393 NONAME
	_ZN5NKern15PreemptionPointEv @ 394 NONAME
	_ZN5NKern15RotateReadyListEi @ 395 NONAME
	_ZN5NKern16RecordIntLatencyEii @ 396 NONAME
	_ZN5NKern17DisableInterruptsEi @ 397 NONAME
	_ZN5NKern17RestoreInterruptsEi @ 398 NONAME
	_ZN5NKern17ThreadForceResumeEP7NThread @ 399 NONAME
	_ZN5NKern17ThreadForceResumeEP7NThreadP10NFastMutex @ 400 NONAME
	_ZN5NKern17ThreadSetPriorityEP7NThreadi @ 401 NONAME
	_ZN5NKern17ThreadSetPriorityEP7NThreadiP10NFastMutex @ 402 NONAME
	_ZN5NKern17WaitForAnyRequestEv @ 403 NONAME
	_ZN5NKern19RecordThreadLatencyEi @ 404 NONAME
	_ZN5NKern19ThreadRequestSignalEP7NThread @ 405 NONAME
	_ZN5NKern19ThreadRequestSignalEP7NThreadP10NFastMutex @ 406 NONAME
	_ZN5NKern19ThreadRequestSignalEP7NThreadi @ 407 NONAME
	_ZN5NKern20DisableAllInterruptsEv @ 408 NONAME
	_ZN5NKern20FastCounterFrequencyEv @ 409 NONAME
	_ZN5NKern20ThreadGetUserContextEP7NThreadPvRm @ 410 NONAME
	_ZN5NKern4ExitEv @ 411 NONAME
	_ZN5NKern4LockEv @ 412 NONAME
	_ZN5NKern5BlockEmj @ 413 NONAME
	_ZN5NKern5BlockEmjP10NFastMutex @ 414 NONAME
	_ZN5NKern5SleepEm @ 415 NONAME
	_ZN5NKern6FMWaitEP10NFastMutex @ 416 NONAME
	_ZN5NKern6FSWaitEP14NFastSemaphore @ 417 NONAME
	_ZN5NKern6UnlockEv @ 418 NONAME
	_ZN5NKern8FMSignalEP10NFastMutex @ 419 NONAME
	_ZN5NKern8FSSignalEP14NFastSemaphore @ 420 NONAME
	_ZN5NKern8FSSignalEP14NFastSemaphoreP10NFastMutex @ 421 NONAME
	_ZN5NKern9FSSignalNEP14NFastSemaphorei @ 422 NONAME
	_ZN5NKern9FSSignalNEP14NFastSemaphoreiP10NFastMutex @ 423 NONAME
	_ZN5NKern9NanoBlockEmjPv @ 424 NONAME
	_ZN5NKern9TickCountEv @ 425 NONAME
	_ZN5TDes813NumFixedWidthEj6TRadixi @ 426 NONAME
	_ZN5TDes819AppendNumFixedWidthEj6TRadixi @ 427 NONAME
	_ZN5TDes83NumEx @ 428 NONAME
	_ZN5TDes83NumEy6TRadix @ 429 NONAME
	_ZN5TDes84CopyEPKh @ 430 NONAME
	_ZN5TDes84CopyEPKhi @ 431 NONAME
	_ZN5TDes84CopyERK6TDesC8 @ 432 NONAME
	_ZN5TDes84FillE5TChar @ 433 NONAME
	_ZN5TDes84FillE5TChari @ 434 NONAME
	_ZN5TDes84ZeroEv @ 435 NONAME
	_ZN5TDes85FillZEi @ 436 NONAME
	_ZN5TDes85FillZEv @ 437 NONAME
	_ZN5TDes86AppendE5TChar @ 438 NONAME
	_ZN5TDes86AppendEPKhi @ 439 NONAME
	_ZN5TDes86AppendERK6TDesC8 @ 440 NONAME
	_ZN5TDes86SetMaxEv @ 441 NONAME
	_ZN5TDes89AppendNumEx @ 442 NONAME
	_ZN5TDes89AppendNumEy6TRadix @ 443 NONAME
	_ZN5TDes89SetLengthEi @ 444 NONAME
	_ZN5TPtr8C1EPhi @ 445 NONAME
	_ZN5TPtr8C1EPhii @ 446 NONAME
	_ZN5TPtr8C1ER10TBufCBase8i @ 447 NONAME
	_ZN5TPtr8C2EPhi @ 448 NONAME
	_ZN5TPtr8C2EPhii @ 449 NONAME
	_ZN5TPtr8C2ER10TBufCBase8i @ 450 NONAME
	_ZN6NTimer5AgainEi @ 451 NONAME
	_ZN6NTimer6CancelEv @ 452 NONAME
	_ZN6NTimer7OneShotEi @ 453 NONAME
	_ZN6NTimer7OneShotEii @ 454 NONAME
	_ZN6TPtrC8C1EPKh @ 455 NONAME
	_ZN6TPtrC8C1EPKhi @ 456 NONAME
	_ZN6TPtrC8C1ERK6TDesC8 @ 457 NONAME
	_ZN6TPtrC8C1Ev @ 458 NONAME
	_ZN6TPtrC8C2EPKh @ 459 NONAME
	_ZN6TPtrC8C2EPKhi @ 460 NONAME
	_ZN6TPtrC8C2ERK6TDesC8 @ 461 NONAME
	_ZN6TPtrC8C2Ev @ 462 NONAME
	_ZN7DObject10AppendNameER5TDes8 @ 463 NONAME
	_ZN7DObject10AsyncCloseEv @ 464 NONAME
	_ZN7DObject11CheckedOpenEv @ 465 NONAME
	_ZN7DObject12AddToProcessEP8DProcess @ 466 NONAME
	_ZN7DObject12DoAppendNameER5TDes8 @ 467 NONAME
	_ZN7DObject14AppendFullNameER5TDes8 @ 468 NONAME
	_ZN7DObject15TraceAppendNameER5TDes8i @ 469 NONAME
	_ZN7DObject16DoAppendFullNameER5TDes8 @ 470 NONAME
	_ZN7DObject17RequestUserHandleEP7DThread10TOwnerType @ 471 NONAME
	_ZN7DObject19TraceAppendFullNameER5TDes8i @ 472 NONAME
	_ZN7DObject4NameER5TDes8 @ 473 NONAME
	_ZN7DObject5CloseEPv @ 474 NONAME
	_ZN7DObject7SetNameEPK6TDesC8 @ 475 NONAME
	_ZN7DObject8FullNameER5TDes8 @ 476 NONAME
	_ZN7DObject8SetOwnerEPS_ @ 477 NONAME
	_ZN7DObjectC1Ev @ 478 NONAME
	_ZN7DObjectC2Ev @ 479 NONAME
	_ZN7DObjectD0Ev @ 480 NONAME
	_ZN7DObjectD1Ev @ 481 NONAME
	_ZN7DObjectD2Ev @ 482 NONAME
	_ZN7DThread10AddCleanupEP14TThreadCleanup @ 483 NONAME
	_ZN7DThread11CancelTimerEv @ 484 NONAME
	_ZN7DThread11ReleaseWaitEi @ 485 NONAME
	_ZN7DThread15DoHasCapabilityE11TCapability @ 486 NONAME
	_ZN7DThread15DoHasCapabilityE11TCapabilityPKc @ 487 NONAME
	_ZN7DThread16ObjectFromHandleEi @ 488 NONAME
	_ZN7DThread16ObjectFromHandleEii @ 489 NONAME
	_ZN7DThread17SetThreadPriorityEi @ 490 NONAME
	_ZN7NTimerQ12TimerAddressEv @ 491 NONAME
	_ZN7NTimerQ4TickEv @ 492 NONAME
	_ZN7NTimerQ7AdvanceEi @ 493 NONAME
	_ZN7NTimerQ8IdleTimeEv @ 494 NONAME
	_ZN7TDfcQueC1Ev @ 495 NONAME
	_ZN7TDfcQueC2Ev @ 496 NONAME
	_ZN8DCodeSeg10EmptyQueueER7SDblQuem @ 497 NONAME
	_ZN8DCodeSeg12VerifyHandleEPv @ 498 NONAME
	_ZN8DCodeSeg21CodeSegFromEntryPointEi @ 499 NONAME
	_ZN8DCodeSeg9UnmarkAllEm @ 500 NONAME
	_ZN8DProcess15DoHasCapabilityE11TCapability @ 501 NONAME
	_ZN8DProcess15DoHasCapabilityE11TCapabilityPKc @ 502 NONAME
	_ZN8DProcess16TraverseCodeSegsEP7SDblQueP8DCodeSegmm @ 503 NONAME
	_ZN8TExcTrap4TrapEPFvPS_P7DThreadPvE @ 504 NONAME
	_ZN8TExcTrap4TrapEv @ 505 NONAME
	_ZN8TExcTrap9ExceptionEi @ 506 NONAME
	_ZN8TVersionC1Eiii @ 507 NONAME
	_ZN8TVersionC1Ev @ 508 NONAME
	_ZN8TVersionC2Eiii @ 509 NONAME
	_ZN8TVersionC2Ev @ 510 NONAME
	_ZN9DPowerHal8RegisterEv @ 511 NONAME
	_ZN9DPowerHalC2Ev @ 512 NONAME
	_ZN9RMessageK8MessageKEi @ 513 NONAME
	_ZN9TBufBase8C1EPKhi @ 514 NONAME
	_ZN9TBufBase8C1ERK6TDesC8i @ 515 NONAME
	_ZN9TBufBase8C1Ei @ 516 NONAME
	_ZN9TBufBase8C1Eii @ 517 NONAME
	_ZN9TBufBase8C2EPKhi @ 518 NONAME
	_ZN9TBufBase8C2ERK6TDesC8i @ 519 NONAME
	_ZN9TBufBase8C2Ei @ 520 NONAME
	_ZN9TBufBase8C2Eii @ 521 NONAME
	_ZN9TRawEvent11SetRotationENS_5TTypeEi @ 522 NONAME
	_ZN9TRawEvent3SetENS_5TTypeE @ 523 NONAME
	_ZN9TRawEvent3SetENS_5TTypeEi @ 524 NONAME
	_ZN9TRawEvent3SetENS_5TTypeEii @ 525 NONAME
	_ZN9TRawEvent3SetENS_5TTypeEiii @ 526 NONAME
	_ZN9TRawEvent3SetENS_5TTypeEiiiiii @ 527 NONAME
	_ZN9TRawEvent7SetTiltENS_5TTypeEii @ 528 NONAME
	_ZN9TTickLink4LockEiPFvPvES0_ @ 529 NONAME
	_ZN9TTickLink6CancelEv @ 530 NONAME
	_ZN9TTickLink7OneShotEiPFvPvES0_ @ 531 NONAME
	_ZN9TTickLink8PeriodicEiPFvPvES0_ @ 532 NONAME
	_ZN9TTickLinkC1Ev @ 533 NONAME
	_ZN9TTickLinkC2Ev @ 534 NONAME
	_ZNK10RArrayBase12BinarySearchEPKvRiPFiS1_S1_E @ 535 NONAME
	_ZNK10RArrayBase12BinarySearchEPKvRiPFiS1_S1_Ei @ 536 NONAME
	_ZNK10RArrayBase13FindIsqSignedEPKv @ 537 NONAME
	_ZNK10RArrayBase13FindIsqSignedEPKvi @ 538 NONAME
	_ZNK10RArrayBase15FindIsqUnsignedEPKv @ 539 NONAME
	_ZNK10RArrayBase15FindIsqUnsignedEPKvi @ 540 NONAME
	_ZNK10RArrayBase18BinarySearchSignedEPKvRi @ 541 NONAME
	_ZNK10RArrayBase18BinarySearchSignedEPKvRii @ 542 NONAME
	_ZNK10RArrayBase20BinarySearchUnsignedEPKvRi @ 543 NONAME
	_ZNK10RArrayBase20BinarySearchUnsignedEPKvRii @ 544 NONAME
	_ZNK10RArrayBase2AtEi @ 545 NONAME
	_ZNK10RArrayBase4FindEPKv @ 546 NONAME
	_ZNK10RArrayBase4FindEPKvPFiS1_S1_E @ 547 NONAME
	_ZNK10RArrayBase5CountEv @ 548 NONAME
	_ZNK10RArrayBase7FindIsqEPKvPFiS1_S1_E @ 549 NONAME
	_ZNK10RArrayBase7FindIsqEPKvPFiS1_S1_Ei @ 550 NONAME
	_ZNK14DLogicalDevice11IsAvailableEiPK6TDesC8S2_ @ 551 NONAME
	_ZNK14DLogicalDevice21QueryVersionSupportedERK8TVersion @ 552 NONAME
	_ZNK14TCapabilitySet13HasCapabilityE11TCapability @ 553 NONAME
	_ZNK14TCapabilitySet15HasCapabilitiesERKS_ @ 554 NONAME
	_ZNK15DPhysicalDevice11IsAvailableEiPK6TDesC8 @ 555 NONAME
	_ZNK15DPhysicalDevice21QueryVersionSupportedERK8TVersion @ 556 NONAME
	_ZNK15TSecurityPolicy13DoCheckPolicyEP7DThread @ 557 NONAME
	_ZNK15TSecurityPolicy13DoCheckPolicyEP7DThreadPKc @ 558 NONAME
	_ZNK15TSecurityPolicy13DoCheckPolicyEP8DProcess @ 559 NONAME
	_ZNK15TSecurityPolicy13DoCheckPolicyEP8DProcessPKc @ 560 NONAME
	_ZNK15TSecurityPolicy7PackageEv @ 561 NONAME
	_ZNK16TBitMapAllocator12AllocAlignedEiiii @ 562 NONAME
	_ZNK16TBitMapAllocator12AllocAlignedEiiiiRiS0_ @ 563 NONAME
	_ZNK16TBitMapAllocator12NotAllocatedEii @ 564 NONAME
	_ZNK16TBitMapAllocator16AllocConsecutiveEii @ 565 NONAME
	_ZNK16TBitMapAllocator7NotFreeEii @ 566 NONAME
	_ZNK17RPointerArrayBase12BinarySearchEPKvRiPFiS1_S1_E @ 567 NONAME
	_ZNK17RPointerArrayBase12BinarySearchEPKvRiPFiS1_S1_Ei @ 568 NONAME
	_ZNK17RPointerArrayBase13FindIsqSignedEi @ 569 NONAME
	_ZNK17RPointerArrayBase13FindIsqSignedEii @ 570 NONAME
	_ZNK17RPointerArrayBase15FindIsqUnsignedEj @ 571 NONAME
	_ZNK17RPointerArrayBase15FindIsqUnsignedEji @ 572 NONAME
	_ZNK17RPointerArrayBase18BinarySearchSignedEiRi @ 573 NONAME
	_ZNK17RPointerArrayBase18BinarySearchSignedEiRii @ 574 NONAME
	_ZNK17RPointerArrayBase20BinarySearchUnsignedEjRi @ 575 NONAME
	_ZNK17RPointerArrayBase20BinarySearchUnsignedEjRii @ 576 NONAME
	_ZNK17RPointerArrayBase2AtEi @ 577 NONAME
	_ZNK17RPointerArrayBase4FindEPKv @ 578 NONAME
	_ZNK17RPointerArrayBase4FindEPKvPFiS1_S1_E @ 579 NONAME
	_ZNK17RPointerArrayBase5CountEv @ 580 NONAME
	_ZNK17RPointerArrayBase7FindIsqEPKvPFiS1_S1_E @ 581 NONAME
	_ZNK17RPointerArrayBase7FindIsqEPKvPFiS1_S1_Ei @ 582 NONAME
	_ZNK6TDesC813LocateReverseE5TChar @ 583 NONAME
	_ZNK6TDesC83AtCEi @ 584 NONAME
	_ZNK6TDesC83MidEi @ 585 NONAME
	_ZNK6TDesC83MidEii @ 586 NONAME
	_ZNK6TDesC83PtrEv @ 587 NONAME
	_ZNK6TDesC84FindEPKhi @ 588 NONAME
	_ZNK6TDesC84FindERKS_ @ 589 NONAME
	_ZNK6TDesC84LeftEi @ 590 NONAME
	_ZNK6TDesC85MatchERKS_ @ 591 NONAME
	_ZNK6TDesC85RightEi @ 592 NONAME
	_ZNK6TDesC86LocateE5TChar @ 593 NONAME
	_ZNK6TDesC86MatchCERKS_ @ 594 NONAME
	_ZNK6TDesC86MatchFERKS_ @ 595 NONAME
	_ZNK6TDesC87CompareERKS_ @ 596 NONAME
	_ZNK6TDesC88CompareFERKS_ @ 597 NONAME
	_ZNK8TVersion4NameEv @ 598 NONAME
	_ZNK9RMessageK6ThreadEv @ 599 NONAME
	_ZNK9TRawEvent3PosEv @ 600 NONAME
	_ZNK9TRawEvent4TiltEv @ 601 NONAME
	_ZNK9TRawEvent5Pos3DEv @ 602 NONAME
	_ZNK9TRawEvent8RotationEv @ 603 NONAME
	_ZNK9TRawEvent8ScanCodeEv @ 604 NONAME
	_ZdaPv @ 605 NONAME
	_ZdlPv @ 606 NONAME
	_Znaj @ 607 NONAME
	_Znwj @ 608 NONAME
	_Znwjj @ 609 NONAME
	kumemget @ 610 NONAME
	kumemget32 @ 611 NONAME
	kumemput @ 612 NONAME
	kumemput32 @ 613 NONAME
	kumemset @ 614 NONAME
	memclr @ 615 NONAME
	memcompare @ 616 NONAME
	memcpy @ 617 NONAME
	memicmp @ 618 NONAME
	memmove @ 619 NONAME
	memset @ 620 NONAME
	umemget @ 621 NONAME
	umemget32 @ 622 NONAME
	umemput @ 623 NONAME
	umemput32 @ 624 NONAME
	umemset @ 625 NONAME
	wordmove @ 626 NONAME
	_ZTV13DPowerHandler @ 627 NONAME ; vtable for DPowerHandler
	_ZTV14DLogicalDevice @ 628 NONAME ; vtable for DLogicalDevice
	_ZTV15DLogicalChannel @ 629 NONAME ; vtable for DLogicalChannel
	_ZTV15DPhysicalDevice @ 630 NONAME ; vtable for DPhysicalDevice
	_ZTV19DLogicalChannelBase @ 631 NONAME ; vtable for DLogicalChannelBase
	_ZTV7DObject @ 632 NONAME ; vtable for DObject
	_ZN5NKern20ThreadSetCpuAffinityEP7NThreadm @ 633 NONAME
	_ZN5NKern5LockCEv @ 634 NONAME
	_ZN5NKern7FMFlashEP10NFastMutex @ 635 NONAME
	_ZN5NKern9FreezeCpuEv @ 636 NONAME
	_ZNK10RArrayBase11FindReverseEPKv @ 637 NONAME
	_ZNK10RArrayBase11FindReverseEPKvPFiS1_S1_E @ 638 NONAME
	_ZNK17RPointerArrayBase11FindReverseEPKv @ 639 NONAME
	_ZNK17RPointerArrayBase11FindReverseEPKvPFiS1_S1_E @ 640 NONAME
	_ZN12DebugSupport10ModifyCodeEP7DThreadmijj @ 641 NONAME
	_ZN12DebugSupport11RestoreCodeEP7DThreadm @ 642 NONAME
	_ZN12DebugSupport17CloseCodeModifierEv @ 643 NONAME
	_ZN12DebugSupport22InitialiseCodeModifierERji @ 644 NONAME
	_ZN6BTrace10SetHandlerEPFimmmmmmmmE @ 645 NONAME
	_ZN6BTrace3OutEmmmm @ 646 NONAME
	_ZN6BTrace4OutNEmmmPKvi @ 647 NONAME
	_ZN6BTrace4OutXEmmmm @ 648 NONAME
	_ZN6BTrace5OutNXEmmmPKvi @ 649 NONAME
	_ZN6BTrace5PrimeEi @ 650 NONAME
	_ZN6BTrace6OutBigEmmPKvi @ 651 NONAME
	_ZN6BTrace9SetFilterEji @ 652 NONAME
	_ZN4Kern16SetTextTraceModeEjj @ 653 NONAME
	_ZN4TDfc6RawAddEv @ 654 NONAME
	_ZN17DDemandPagingLock4FreeEv @ 655 NONAME
	_ZN17DDemandPagingLock4LockEP7DThreadmi @ 656 NONAME
	_ZN17DDemandPagingLock5AllocEi @ 657 NONAME
	_ZN17DDemandPagingLock8DoUnlockEv @ 658 NONAME
	_ZN17DDemandPagingLockC1Ev @ 659 NONAME
	_ZN17DDemandPagingLockC2Ev @ 660 NONAME
	_ZN4Kern19InstallPagingDeviceEP13DPagingDevice @ 661 NONAME
	KHeapMinCellSize @ 662 NONAME DATA 4
	_ZN5Cache13GetThresholdsER16TCacheThresholdsj @ 663 NONAME
	_ZN5Cache13SetThresholdsERK16TCacheThresholdsj @ 664 NONAME
	KHeapShrinkHysRatio @ 665 NONAME DATA 4
	_ZN4Kern20InstallLogicalDeviceEP14DLogicalDevice @ 666 NONAME
	_ZN4Kern21InstallPhysicalDeviceEP15DPhysicalDevice @ 667 NONAME
	_ZN6BTrace11OutFilteredEmmmm @ 668 NONAME
	_ZN6BTrace12OutFilteredNEmmmPKvi @ 669 NONAME
	_ZN6BTrace12OutFilteredXEmmmm @ 670 NONAME
	_ZN6BTrace13OutFilteredNXEmmmPKvi @ 671 NONAME
	_ZN6BTrace14OutFilteredBigEmmPKvi @ 672 NONAME
	_ZN6BTrace7Filter2ERPmRi @ 673 NONAME
	_ZN6BTrace10SetFilter2EPKmi @ 674 NONAME
	_ZN6BTrace10SetFilter2Ei @ 675 NONAME
	_ZN6BTrace10SetFilter2Emi @ 676 NONAME
	_ZN6BTrace11CheckFilterEm @ 677 NONAME
	_ZN6BTrace12CheckFilter2Emm @ 678 NONAME
	_ZN4Kern8AddEventERK9TRawEventi @ 679 NONAME
	_ZN10RArrayBaseC1EiPvi @ 680 NONAME
	_ZN10RArrayBaseC2EiPvi @ 681 NONAME
	_ZN14TDynamicDfcQue7DestroyEv @ 682 NONAME
	_ZN4Kern17DynamicDfcQCreateERP14TDynamicDfcQueiRK6TDesC8 @ 683 NONAME
	_ZN4Epoc18CopyToShadowMemoryEmmm @ 684 NONAME
	_ZN19TMappingAttributes2C1E11TMemoryTypeiiiii @ 685 NONAME
	_ZN19TMappingAttributes2C2E11TMemoryTypeiiiii @ 686 NONAME
	_ZN4Kern16SystemTimeSecureEv @ 687 NONAME
	_ZN6NTimer7OneShotEiR4TDfc @ 688 NONAME
	_ZN10NFastMutex19HeldByCurrentThreadEv @ 689 NONAME
	_ZN10NFastMutexC1Ev @ 690 NONAME
	_ZN10NFastMutexC2Ev @ 691 NONAME
	_ZN12TPriListBase7AddHeadEP12TPriListLink @ 692 NONAME
	_ZN4TDfc11QueueOnIdleEv @ 693 NONAME
	_ZN5NKern10CurrentCpuEv @ 694 NONAME
	_ZN5NKern12DeferredExitEv @ 695 NONAME
	_ZN5NKern12EndFreezeCpuEi @ 696 NONAME
	_ZN5NKern12KernelLockedEi @ 697 NONAME
	_ZN5NKern12NumberOfCpusEv @ 698 NONAME
	_ZN5NKern13HeldFastMutexEv @ 699 NONAME
	_ZN5NKern14CpuIdleHandlerEv @ 700 NONAME
	_ZN5NKern14YieldTimesliceEv @ 701 NONAME
	_ZN6BTrace7LockPtrEv @ 702 NONAME
	_ZN9TSpinLock10UnlockOnlyEv @ 703 NONAME
	_ZN9TSpinLock11LockIrqSaveEv @ 704 NONAME
	_ZN9TSpinLock8LockOnlyEv @ 705 NONAME
	_ZN9TSpinLock9FlashOnlyEv @ 706 NONAME
	_ZN5NKern13ThreadCpuTimeEP7NThread @ 707 NONAME
	_ZN5NKern15CpuTimeMeasFreqEv @ 708 NONAME
	_ZN5NKern15RotateReadyListEii @ 709 NONAME
	_ZN6BTrace7ControlENS_8TControlEPvS1_ @ 710 NONAME
	_ZN6BTrace11SetHandlersEPFimmmmmmmmEPFiNS_8TControlEPvS3_ERS1_RS5_ @ 711 NONAME
	_ZN3X869TimestampEv @ 712 NONAME ; public: static unsigned int64 __cdecl X86::Timestamp(void)
	_ZN3X8616IrqReturnAddressEv @ 713 NONAME
	_ZN4Kern14ThreadSecureIdEP7DThread @ 714 NONAME
	_ZN4Kern14ThreadVendorIdEP7DThread @ 715 NONAME
	_ZN4Kern15ProcessSecureIdEP8DProcess @ 716 NONAME
	_ZN4Kern15ProcessVendorIdEP8DProcess @ 717 NONAME
	_ZN4Epoc16MovePhysicalPageEmRmNS_20TRamDefragPageToMoveE @ 718 NONAME
	_ZN4Kern12ValidateHeapEv @ 719 NONAME
	pagecpy @ 720 NONAME
	_ZN4Epoc16SetRamZoneConfigEPK8SRamZonePFi10TRamZoneOpPvPKvE @ 721 NONAME
	_ZN4Epoc19GetRamZonePageCountEjR17SRamZonePageCount @ 722 NONAME
	_ZN4Epoc15FreePhysicalRamEiPm @ 723 NONAME
	_ZN4Epoc16AllocPhysicalRamEiPm @ 724 NONAME
	_ZN4Epoc20ZoneAllocPhysicalRamEjiPm @ 725 NONAME
	_ZN4Epoc20ZoneAllocPhysicalRamEjiRmi @ 726 NONAME
	_ZN13TAsyncRequest11SendReceiveEv @ 727 NONAME
	_ZN13TAsyncRequest4SendEP14NFastSemaphore @ 728 NONAME
	_ZN13TAsyncRequest4SendEP4TDfc @ 729 NONAME
	_ZN13TAsyncRequest6CancelEv @ 730 NONAME
	_ZN13TAsyncRequest8CompleteEi @ 731 NONAME
	_ZN13TAsyncRequestC1EPFvPvEP7TDfcQuei @ 732 NONAME
	_ZN13TAsyncRequestC2EPFvPvEP7TDfcQuei @ 733 NONAME
	_ZN17TRamDefragRequest12ClaimRamZoneEjRmP14NFastSemaphorei @ 734 NONAME
	_ZN17TRamDefragRequest12ClaimRamZoneEjRmP4TDfci @ 735 NONAME
	_ZN17TRamDefragRequest12ClaimRamZoneEjRmi @ 736 NONAME
	_ZN17TRamDefragRequest12EmptyRamZoneEjP14NFastSemaphorei @ 737 NONAME
	_ZN17TRamDefragRequest12EmptyRamZoneEjP4TDfci @ 738 NONAME
	_ZN17TRamDefragRequest12EmptyRamZoneEji @ 739 NONAME
	_ZN17TRamDefragRequest6CancelEv @ 740 NONAME
	_ZN17TRamDefragRequest6ResultEv @ 741 NONAME
	_ZN17TRamDefragRequest9DefragRamEP14NFastSemaphoreii @ 742 NONAME
	_ZN17TRamDefragRequest9DefragRamEP4TDfcii @ 743 NONAME
	_ZN17TRamDefragRequest9DefragRamEii @ 744 NONAME
	_ZN17TRamDefragRequestC1Ev @ 745 NONAME
	_ZN17TRamDefragRequestC2Ev @ 746 NONAME
	_ZN4Epoc18ModifyRamZoneFlagsEjjj @ 747 NONAME
	__cxa_pure_virtual @ 748 NONAME
	_ZN4Kern19PrepareMemoryForDMAEP7DThreadPviPm @ 749 NONAME
	_ZN4Kern20ReleaseMemoryFromDMAEP7DThreadPviPm @ 750 NONAME
	_ZN19TDes8IgnoreOverflow8OverflowER5TDes8 @ 751 NONAME
	_ZN4Epoc20ZoneAllocPhysicalRamEPjjiPm @ 752 NONAME
	_ZN4Epoc20ZoneAllocPhysicalRamEPjjiRmi @ 753 NONAME
	_ZN12DebugSupport16TerminateProcessEP8DProcessi @ 754 NONAME
	_ZNK16TBitMapAllocator12AllocAlignedEiiiiRiS0_j @ 755 NONAME
	_ZN13TSecurityInfoC1EP7DThread @ 756 NONAME
	_ZN13TSecurityInfoC1EP8DProcess @ 757 NONAME
	_ZN13TSecurityInfoC2EP7DThread @ 758 NONAME
	_ZN13TSecurityInfoC2EP8DProcess @ 759 NONAME
	_ZN4Kern20QueueRequestCompleteEP7DThreadP14TClientRequesti @ 760 NONAME
	_ZN14TClientRequest5ResetEv @ 761 NONAME
	_ZN14TClientRequest9SetStatusEP14TRequestStatus @ 762 NONAME
	_ZN4Kern19CreateClientRequestERP14TClientRequest @ 763 NONAME
	_ZN4Kern20DestroyClientRequestERP14TClientRequest @ 764 NONAME
	_ZN14TClientRequest7IsReadyEv @ 765 NONAME
	_ZN4Kern27CreateClientDataRequestBaseERP22TClientDataRequestBasei @ 766 NONAME
	_ZN4Kern15RequestCompleteERP14TRequestStatusi @ 767 NONAME
	_ZN4Kern16SetRealtimeStateE20TThreadRealtimeState @ 768 NONAME
	_ZN14TClientRequest9StatusPtrEv @ 769 NONAME
	_ZN11NThreadBase7ReleaseEij @ 770 NONAME
	_ZN11TRWSpinLock10FlashOnlyREv @ 771 NONAME
	_ZN11TRWSpinLock10FlashOnlyWEv @ 772 NONAME
	_ZN11TRWSpinLock10UnlockIrqREv @ 773 NONAME
	_ZN11TRWSpinLock10UnlockIrqWEv @ 774 NONAME
	_ZN11TRWSpinLock11UnlockOnlyREv @ 775 NONAME
	_ZN11TRWSpinLock11UnlockOnlyWEv @ 776 NONAME
	_ZN11TRWSpinLock12LockIrqSaveREv @ 777 NONAME
	_ZN11TRWSpinLock12LockIrqSaveWEv @ 778 NONAME
	_ZN11TRWSpinLock13FlashPreemptREv @ 779 NONAME
	_ZN11TRWSpinLock13FlashPreemptWEv @ 780 NONAME
	_ZN11TRWSpinLock16FlashIrqRestoreREi @ 781 NONAME
	_ZN11TRWSpinLock16FlashIrqRestoreWEi @ 782 NONAME
	_ZN11TRWSpinLock17UnlockIrqRestoreREi @ 783 NONAME
	_ZN11TRWSpinLock17UnlockIrqRestoreWEi @ 784 NONAME
	_ZN11TRWSpinLock8LockIrqREv @ 785 NONAME
	_ZN11TRWSpinLock8LockIrqWEv @ 786 NONAME
	_ZN11TRWSpinLock9FlashIrqREv @ 787 NONAME
	_ZN11TRWSpinLock9FlashIrqWEv @ 788 NONAME
	_ZN11TRWSpinLock9LockOnlyREv @ 789 NONAME
	_ZN11TRWSpinLock9LockOnlyWEv @ 790 NONAME
	_ZN11TRWSpinLockC1Ej @ 791 NONAME
	_ZN11TRWSpinLockC2Ej @ 792 NONAME
	_ZN4TDfc6ThreadEv @ 793 NONAME
	_ZN4TDfc7SetTiedEP12NSchedulable @ 794 NONAME
	_ZN4TDfcC1EP12NSchedulablePFvPvES2_ @ 795 NONAME
	_ZN4TDfcC2EP12NSchedulablePFvPvES2_ @ 796 NONAME
	_ZN4TDfcD1Ev @ 797 NONAME
	_ZN4TDfcD2Ev @ 798 NONAME
	_ZN5NKern10LeaveGroupEv @ 799 NONAME
	_ZN5NKern11GroupCreateEP12NThreadGroupR23SNThreadGroupCreateInfo @ 800 NONAME
	_ZN5NKern12CurrentGroupEv @ 801 NONAME
	_ZN5NKern12GroupDestroyEP12NThreadGroup @ 802 NONAME
	_ZN5NKern13InterruptBindEiPFvPvES0_mP12NSchedulable @ 803 NONAME
	_ZN5NKern13InterruptInitEimimPv @ 804 NONAME
	_ZN5NKern14InterruptClearEi @ 805 NONAME
	_ZN5NKern14TimesliceTicksEm @ 806 NONAME
	_ZN5NKern15InterruptEnableEi @ 807 NONAME
	_ZN5NKern15InterruptUnbindEi @ 808 NONAME
	_ZN5NKern16InterruptDisableEi @ 809 NONAME
	_ZN5NKern18ThreadSetTimesliceEP7NThreadi @ 810 NONAME
	_ZN5NKern18TimestampFrequencyEv @ 811 NONAME
	_ZN5NKern19EnableAllInterruptsEv @ 812 NONAME
	_ZN5NKern19InterruptSetCpuMaskEim @ 813 NONAME
	_ZN5NKern20InterruptSetPriorityEii @ 814 NONAME
	_ZN5NKern20ThreadSetUserContextEP7NThreadPv @ 815 NONAME
	_ZN5NKern22ThreadGetSystemContextEP7NThreadPvRm @ 816 NONAME
	_ZN5NKern7CrashedEv @ 817 NONAME
	_ZN5NKern9InterruptEi @ 818 NONAME
	_ZN5NKern9JoinGroupEP12NThreadGroup @ 819 NONAME
	_ZN5NKern9TimestampEv @ 820 NONAME
	_ZN6NTimer7SetDfcQEP7TDfcQue @ 821 NONAME
	_ZN6NTimer7SetTiedEP12NSchedulable @ 822 NONAME
	_ZN6NTimer9IsPendingEv @ 823 NONAME
	_ZN6NTimerC1EP12NSchedulablePFvPvES2_ @ 824 NONAME
	_ZN6NTimerC1EPFvPvES0_P7TDfcQuei @ 825 NONAME
	_ZN6NTimerC1EPFvPvES0_i @ 826 NONAME
	_ZN6NTimerC2EP12NSchedulablePFvPvES2_ @ 827 NONAME
	_ZN6NTimerC2EPFvPvES0_P7TDfcQuei @ 828 NONAME
	_ZN6NTimerC2EPFvPvES0_i @ 829 NONAME
	_ZN6NTimerD1Ev @ 830 NONAME
	_ZN6NTimerD2Ev @ 831 NONAME
	_ZN9TSpinLock12FlashPreemptEv @ 832 NONAME
	_ZN9TSpinLock15FlashIrqRestoreEi @ 833 NONAME
	_ZN9TSpinLock16UnlockIrqRestoreEi @ 834 NONAME
	_ZN9TSpinLock7LockIrqEv @ 835 NONAME
	_ZN9TSpinLock8FlashIrqEv @ 836 NONAME
	_ZN9TSpinLock9UnlockIrqEv @ 837 NONAME
	_ZN9TSpinLockC1Ej @ 838 NONAME
	_ZN9TSpinLockC2Ej @ 839 NONAME
	__e32_atomic_add_acq16 @ 840 NONAME
	__e32_atomic_add_acq32 @ 841 NONAME
	__e32_atomic_add_acq64 @ 842 NONAME
	__e32_atomic_add_acq8 @ 843 NONAME
	__e32_atomic_add_ord16 @ 844 NONAME
	__e32_atomic_add_ord32 @ 845 NONAME
	__e32_atomic_add_ord64 @ 846 NONAME
	__e32_atomic_add_ord8 @ 847 NONAME
	__e32_atomic_add_rel16 @ 848 NONAME
	__e32_atomic_add_rel32 @ 849 NONAME
	__e32_atomic_add_rel64 @ 850 NONAME
	__e32_atomic_add_rel8 @ 851 NONAME
	__e32_atomic_add_rlx16 @ 852 NONAME
	__e32_atomic_add_rlx32 @ 853 NONAME
	__e32_atomic_add_rlx64 @ 854 NONAME
	__e32_atomic_add_rlx8 @ 855 NONAME
	__e32_atomic_and_acq16 @ 856 NONAME
	__e32_atomic_and_acq32 @ 857 NONAME
	__e32_atomic_and_acq64 @ 858 NONAME
	__e32_atomic_and_acq8 @ 859 NONAME
	__e32_atomic_and_ord16 @ 860 NONAME
	__e32_atomic_and_ord32 @ 861 NONAME
	__e32_atomic_and_ord64 @ 862 NONAME
	__e32_atomic_and_ord8 @ 863 NONAME
	__e32_atomic_and_rel16 @ 864 NONAME
	__e32_atomic_and_rel32 @ 865 NONAME
	__e32_atomic_and_rel64 @ 866 NONAME
	__e32_atomic_and_rel8 @ 867 NONAME
	__e32_atomic_and_rlx16 @ 868 NONAME
	__e32_atomic_and_rlx32 @ 869 NONAME
	__e32_atomic_and_rlx64 @ 870 NONAME
	__e32_atomic_and_rlx8 @ 871 NONAME
	__e32_atomic_axo_acq16 @ 872 NONAME
	__e32_atomic_axo_acq32 @ 873 NONAME
	__e32_atomic_axo_acq64 @ 874 NONAME
	__e32_atomic_axo_acq8 @ 875 NONAME
	__e32_atomic_axo_ord16 @ 876 NONAME
	__e32_atomic_axo_ord32 @ 877 NONAME
	__e32_atomic_axo_ord64 @ 878 NONAME
	__e32_atomic_axo_ord8 @ 879 NONAME
	__e32_atomic_axo_rel16 @ 880 NONAME
	__e32_atomic_axo_rel32 @ 881 NONAME
	__e32_atomic_axo_rel64 @ 882 NONAME
	__e32_atomic_axo_rel8 @ 883 NONAME
	__e32_atomic_axo_rlx16 @ 884 NONAME
	__e32_atomic_axo_rlx32 @ 885 NONAME
	__e32_atomic_axo_rlx64 @ 886 NONAME
	__e32_atomic_axo_rlx8 @ 887 NONAME
	__e32_atomic_cas_acq16 @ 888 NONAME
	__e32_atomic_cas_acq32 @ 889 NONAME
	__e32_atomic_cas_acq64 @ 890 NONAME
	__e32_atomic_cas_acq8 @ 891 NONAME
	__e32_atomic_cas_ord16 @ 892 NONAME
	__e32_atomic_cas_ord32 @ 893 NONAME
	__e32_atomic_cas_ord64 @ 894 NONAME
	__e32_atomic_cas_ord8 @ 895 NONAME
	__e32_atomic_cas_rel16 @ 896 NONAME
	__e32_atomic_cas_rel32 @ 897 NONAME
	__e32_atomic_cas_rel64 @ 898 NONAME
	__e32_atomic_cas_rel8 @ 899 NONAME
	__e32_atomic_cas_rlx16 @ 900 NONAME
	__e32_atomic_cas_rlx32 @ 901 NONAME
	__e32_atomic_cas_rlx64 @ 902 NONAME
	__e32_atomic_cas_rlx8 @ 903 NONAME
	__e32_atomic_ior_acq16 @ 904 NONAME
	__e32_atomic_ior_acq32 @ 905 NONAME
	__e32_atomic_ior_acq64 @ 906 NONAME
	__e32_atomic_ior_acq8 @ 907 NONAME
	__e32_atomic_ior_ord16 @ 908 NONAME
	__e32_atomic_ior_ord32 @ 909 NONAME
	__e32_atomic_ior_ord64 @ 910 NONAME
	__e32_atomic_ior_ord8 @ 911 NONAME
	__e32_atomic_ior_rel16 @ 912 NONAME
	__e32_atomic_ior_rel32 @ 913 NONAME
	__e32_atomic_ior_rel64 @ 914 NONAME
	__e32_atomic_ior_rel8 @ 915 NONAME
	__e32_atomic_ior_rlx16 @ 916 NONAME
	__e32_atomic_ior_rlx32 @ 917 NONAME
	__e32_atomic_ior_rlx64 @ 918 NONAME
	__e32_atomic_ior_rlx8 @ 919 NONAME
	__e32_atomic_load_acq16 @ 920 NONAME
	__e32_atomic_load_acq32 @ 921 NONAME
	__e32_atomic_load_acq64 @ 922 NONAME
	__e32_atomic_load_acq8 @ 923 NONAME
	__e32_atomic_store_ord16 @ 924 NONAME
	__e32_atomic_store_ord32 @ 925 NONAME
	__e32_atomic_store_ord64 @ 926 NONAME
	__e32_atomic_store_ord8 @ 927 NONAME
	__e32_atomic_store_rel16 @ 928 NONAME
	__e32_atomic_store_rel32 @ 929 NONAME
	__e32_atomic_store_rel64 @ 930 NONAME
	__e32_atomic_store_rel8 @ 931 NONAME
	__e32_atomic_swp_acq16 @ 932 NONAME
	__e32_atomic_swp_acq32 @ 933 NONAME
	__e32_atomic_swp_acq64 @ 934 NONAME
	__e32_atomic_swp_acq8 @ 935 NONAME
	__e32_atomic_swp_ord16 @ 936 NONAME
	__e32_atomic_swp_ord32 @ 937 NONAME
	__e32_atomic_swp_ord64 @ 938 NONAME
	__e32_atomic_swp_ord8 @ 939 NONAME
	__e32_atomic_swp_rel16 @ 940 NONAME
	__e32_atomic_swp_rel32 @ 941 NONAME
	__e32_atomic_swp_rel64 @ 942 NONAME
	__e32_atomic_swp_rel8 @ 943 NONAME
	__e32_atomic_swp_rlx16 @ 944 NONAME
	__e32_atomic_swp_rlx32 @ 945 NONAME
	__e32_atomic_swp_rlx64 @ 946 NONAME
	__e32_atomic_swp_rlx8 @ 947 NONAME
	__e32_atomic_tas_acq16 @ 948 NONAME
	__e32_atomic_tas_acq32 @ 949 NONAME
	__e32_atomic_tas_acq64 @ 950 NONAME
	__e32_atomic_tas_acq8 @ 951 NONAME
	__e32_atomic_tas_ord16 @ 952 NONAME
	__e32_atomic_tas_ord32 @ 953 NONAME
	__e32_atomic_tas_ord64 @ 954 NONAME
	__e32_atomic_tas_ord8 @ 955 NONAME
	__e32_atomic_tas_rel16 @ 956 NONAME
	__e32_atomic_tas_rel32 @ 957 NONAME
	__e32_atomic_tas_rel64 @ 958 NONAME
	__e32_atomic_tas_rel8 @ 959 NONAME
	__e32_atomic_tas_rlx16 @ 960 NONAME
	__e32_atomic_tas_rlx32 @ 961 NONAME
	__e32_atomic_tas_rlx64 @ 962 NONAME
	__e32_atomic_tas_rlx8 @ 963 NONAME
	__e32_atomic_tau_acq16 @ 964 NONAME
	__e32_atomic_tau_acq32 @ 965 NONAME
	__e32_atomic_tau_acq64 @ 966 NONAME
	__e32_atomic_tau_acq8 @ 967 NONAME
	__e32_atomic_tau_ord16 @ 968 NONAME
	__e32_atomic_tau_ord32 @ 969 NONAME
	__e32_atomic_tau_ord64 @ 970 NONAME
	__e32_atomic_tau_ord8 @ 971 NONAME
	__e32_atomic_tau_rel16 @ 972 NONAME
	__e32_atomic_tau_rel32 @ 973 NONAME
	__e32_atomic_tau_rel64 @ 974 NONAME
	__e32_atomic_tau_rel8 @ 975 NONAME
	__e32_atomic_tau_rlx16 @ 976 NONAME
	__e32_atomic_tau_rlx32 @ 977 NONAME
	__e32_atomic_tau_rlx64 @ 978 NONAME
	__e32_atomic_tau_rlx8 @ 979 NONAME
	__e32_atomic_xor_acq16 @ 980 NONAME
	__e32_atomic_xor_acq32 @ 981 NONAME
	__e32_atomic_xor_acq64 @ 982 NONAME
	__e32_atomic_xor_acq8 @ 983 NONAME
	__e32_atomic_xor_ord16 @ 984 NONAME
	__e32_atomic_xor_ord32 @ 985 NONAME
	__e32_atomic_xor_ord64 @ 986 NONAME
	__e32_atomic_xor_ord8 @ 987 NONAME
	__e32_atomic_xor_rel16 @ 988 NONAME
	__e32_atomic_xor_rel32 @ 989 NONAME
	__e32_atomic_xor_rel64 @ 990 NONAME
	__e32_atomic_xor_rel8 @ 991 NONAME
	__e32_atomic_xor_rlx16 @ 992 NONAME
	__e32_atomic_xor_rlx32 @ 993 NONAME
	__e32_atomic_xor_rlx64 @ 994 NONAME
	__e32_atomic_xor_rlx8 @ 995 NONAME
	__e32_bit_count_32 @ 996 NONAME
	__e32_bit_count_64 @ 997 NONAME
	__e32_find_ls1_32 @ 998 NONAME
	__e32_find_ls1_64 @ 999 NONAME
	__e32_find_ms1_32 @ 1000 NONAME
	__e32_find_ms1_64 @ 1001 NONAME
	__e32_io_completion_barrier @ 1002 NONAME
	__e32_memory_barrier @ 1003 NONAME
	_ZN4Kern16PinVirtualMemoryEP17TVirtualPinObjectmjP7DThread @ 1004 NONAME
	_ZN4Kern18UnpinVirtualMemoryEP17TVirtualPinObject @ 1005 NONAME
	_ZN4Kern22CreateVirtualPinObjectERP17TVirtualPinObject @ 1006 NONAME
	_ZN4Kern23DestroyVirtualPinObjectERP17TVirtualPinObject @ 1007 NONAME
	_ZN13DPagingDevice10NotifyBusyEv @ 1008 NONAME
	_ZN13DPagingDevice10NotifyIdleEv @ 1009 NONAME
	_ZN4Kern13ChunkUserBaseEP6DChunkP7DThread @ 1010 NONAME
	_ZN8KernTest4TestENS_13TTestFunctionEPvS1_S1_ @ 1011 NONAME
	_ZN20TClientBufferRequest10StartSetupEP14TRequestStatus @ 1012 NONAME
	_ZN20TClientBufferRequest5ResetEv @ 1013 NONAME
	_ZN20TClientBufferRequest8EndSetupEv @ 1014 NONAME
	_ZN20TClientBufferRequest9AddBufferERP13TClientBufferPv @ 1015 NONAME
	_ZN20TClientBufferRequest9AddBufferERP13TClientBuffermii @ 1016 NONAME
	_ZN4Kern13ThreadBufReadEP7DThreadPK13TClientBufferR5TDes8ii @ 1017 NONAME
	_ZN4Kern14ThreadBufWriteEP7DThreadP13TClientBufferRK6TDesC8iiS1_ @ 1018 NONAME
	_ZN4Kern16PinVirtualMemoryEP17TVirtualPinObjectRK13TClientBufferP7DThread @ 1019 NONAME
	_ZN4Kern25CreateClientBufferRequestERP20TClientBufferRequestjj @ 1020 NONAME
	_ZN4Kern26DestroyClientBufferRequestERP20TClientBufferRequest @ 1021 NONAME
	_ZN4Kern26QueueBufferRequestCompleteEP7DThreadP20TClientBufferRequesti @ 1022 NONAME
	_ZNK13TClientBuffer11IsWriteableEv @ 1023 NONAME
	_ZNK13TClientBuffer6LengthEv @ 1024 NONAME
	_ZNK13TClientBuffer9MaxLengthEv @ 1025 NONAME
	_ZN14TDynamicDfcQue16SetRealtimeStateE20TThreadRealtimeState @ 1026 NONAME
	_ZN15DLogicalChannel7SendMsgEP12TMessageBase @ 1027 NONAME
	_ZN4Kern25CreateAndPinVirtualMemoryERP17TVirtualPinObjectmj @ 1028 NONAME
	_ZN13TClientBuffer13SetFromBufferEmii @ 1029 NONAME
	_ZN13TClientBuffer17SetFromDescriptorEPvP7DThread @ 1030 NONAME
	_ZN13TClientBuffer22UpdateDescriptorLengthEP7DThread @ 1031 NONAME
	_ZN13TClientBuffer5ResetEv @ 1032 NONAME
	_ZN13TClientBufferC1Ev @ 1033 NONAME
	_ZN13TClientBufferC2Ev @ 1034 NONAME
	_ZNK13TClientBuffer5IsSetEv @ 1035 NONAME
	_ZN4Kern28CreateClientDataRequestBase2ERP23TClientDataRequestBase2ii @ 1036 NONAME
	_ZN5Cache18DmaBufferAlignmentEv @ 1037 NONAME
	_ZN6BTrace22OutFilteredPcFormatBigEmmmtPKvi @ 1038 NONAME
	_ZN4Kern17PinPhysicalMemoryEP18TPhysicalPinObjectmjiRmPmS2_RjP7DThread @ 1039 NONAME
	_ZN4Kern19UnpinPhysicalMemoryEP18TPhysicalPinObject @ 1040 NONAME
	_ZN4Kern23CreatePhysicalPinObjectERP18TPhysicalPinObject @ 1041 NONAME
	_ZN4Kern24DestroyPhysicalPinObjectERP18TPhysicalPinObject @ 1042 NONAME
	_ZN5Cache22SyncMemoryAfterDmaReadEmjm @ 1043 NONAME
	_ZN5Cache30SyncPhysicalMemoryAfterDmaReadEPmjjjm @ 1044 NONAME
	_ZN5Cache31SyncPhysicalMemoryBeforeDmaReadEPmjjjm @ 1045 NONAME
	_ZN5Cache32SyncPhysicalMemoryBeforeDmaWriteEPmjjjm @ 1046 NONAME
	_ZN16TBitMapAllocator9AllocFromEj @ 1047 NONAME
	KSMPNumCpus @ 1048 NONAME DATA 4
	_ZN11TShPoolInfoC1Ev @ 1049 NONAME
	_ZN11TShPoolInfoC2Ev @ 1050 NONAME
	_ZN17TShPoolCreateInfo12SetExclusiveEv @ 1051 NONAME
	_ZN17TShPoolCreateInfo13SetContiguousEv @ 1052 NONAME
	_ZN17TShPoolCreateInfo13SetGuardPagesEv @ 1053 NONAME
	_ZN17TShPoolCreateInfo19SetSizingAttributesEjjjj @ 1054 NONAME
	_ZN17TShPoolCreateInfoC1ENS_19TShPoolMemoryDeviceEjjjjPm @ 1055 NONAME
	_ZN17TShPoolCreateInfoC1ENS_19TShPoolMemoryDeviceEjjjjm @ 1056 NONAME
	_ZN17TShPoolCreateInfoC1ENS_25TShPoolPageAlignedBuffersEjj @ 1057 NONAME
	_ZN17TShPoolCreateInfoC1ENS_28TShPoolNonPageAlignedBuffersEjjj @ 1058 NONAME
	_ZN17TShPoolCreateInfoC2ENS_19TShPoolMemoryDeviceEjjjjPm @ 1059 NONAME
	_ZN17TShPoolCreateInfoC2ENS_19TShPoolMemoryDeviceEjjjjm @ 1060 NONAME
	_ZN17TShPoolCreateInfoC2ENS_25TShPoolPageAlignedBuffersEjj @ 1061 NONAME
	_ZN17TShPoolCreateInfoC2ENS_28TShPoolNonPageAlignedBuffersEjjj @ 1062 NONAME
	_ZN4Kern10ShBufCloseEP6TShBuf @ 1063 NONAME
	_ZN4Kern10ShPoolOpenERP7TShPoolP7DThreadiij @ 1064 NONAME
	_ZN4Kern11ShPoolAllocEP7TShPoolRP6TShBufj @ 1065 NONAME
	_ZN4Kern11ShPoolCloseEP7TShPool @ 1066 NONAME
	_ZN4Kern12ShPoolCreateERP7TShPoolR17TShPoolCreateInfoij @ 1067 NONAME
	_ZN4Kern13ShPoolBufSizeEP7TShPool @ 1068 NONAME
	_ZN4Kern13ShPoolGetInfoEP7TShPoolR11TShPoolInfo @ 1069 NONAME
	_ZN4Kern15ShPoolFreeCountEP7TShPool @ 1070 NONAME
	_ZN4Kern16ObjectFromHandleEP7DThreadiiRj @ 1071 NONAME
	_ZN4Kern21ShPoolSetBufferWindowEP7TShPooli @ 1072 NONAME
	_ZN4Kern22ShBufMakeHandleAndOpenEP6TShBufP7DThread @ 1073 NONAME
	_ZN4Kern23ShPoolMakeHandleAndOpenEP7TShPoolP7DThreadj @ 1074 NONAME
	_ZN4Kern8ShBufPinEP6TShBufP18TPhysicalPinObjectiRmPmS4_Rj @ 1075 NONAME
	_ZN4Kern8ShBufPtrEP6TShBuf @ 1076 NONAME
	_ZN4Kern9ShBufOpenERP6TShBufP7DThreadi @ 1077 NONAME
	_ZN4Kern9ShBufSizeEP6TShBuf @ 1078 NONAME
	_ZN7DObject12AddToProcessEP8DProcessj @ 1079 NONAME
	_ZN7DObject17RequestUserHandleEP7DThread10TOwnerTypej @ 1080 NONAME
	_ZN7DThread16ObjectFromHandleEiiRj @ 1081 NONAME
	_ZN9TRawEvent9SetRepeatENS_5TTypeEii @ 1082 NONAME
	_ZNK9TRawEvent7RepeatsEv @ 1083 NONAME
	_ZN4Kern17MakeHandleAndOpenEP7DThreadP7DObject10TOwnerType @ 1084 NONAME
	_ZN4Kern15MapAndPinMemoryEP16TKernelMapObjectP7DThreadmjjRmPm @ 1085 NONAME
	_ZN4Kern19UnmapAndUnpinMemoryEP16TKernelMapObject @ 1086 NONAME
	_ZN4Kern21CreateKernelMapObjectERP16TKernelMapObjectj @ 1087 NONAME
	_ZN4Kern22DestroyKernelMapObjectERP16TKernelMapObject @ 1088 NONAME
	_ZN9Interrupt16AddTimingEntropyEv @ 1089 NONAME
	_ZN4Kern10RandomSaltEmj @ 1090 NONAME
	_ZN4Kern10RandomSaltEyj @ 1091 NONAME
	_ZN4Kern10RandomSaltEPKhjj @ 1092 NONAME
	_ZN4Kern12SecureRandomER5TDes8 @ 1093 NONAME
	_ZN13DPagingDevice16NotificationLockEv @ 1094 NONAME
	_ZN13KernCoreStats5StatsEPv @ 1095 NONAME
	_ZN13KernCoreStats6EngageEi @ 1096 NONAME
	_ZN13KernCoreStats6RetireEii @ 1097 NONAME
	_ZN13KernCoreStats9ConfigureEj @ 1098 NONAME
	_ZN5NKern21SetNumberOfActiveCpusEi @ 1099 NONAME
	_ZN4Epoc11FreeRamZoneEj @ 1100 NONAME
	_ZN16TBitMapAllocator14SelectiveAllocEii @ 1101 NONAME
	_ZN10RArrayBase12SetKeyOffsetEi @ 1102 NONAME
	_ZN5Cache10CpuRetiresEv @ 1103 NONAME
	_ZN5Cache13KernelRetiresEv @ 1104 NONAME
	_ZN9TRawEvent3SetENS_5TTypeEiiih @ 1105 NONAME
	_ZN16DPowerController8RegisterEj @ 1106 NONAME
	